
/home/zyy/coco_work/cocoTest/MyVex_test/core_test/my_riscv_project/build/my_riscv_executable:     file format elf32-littleriscv
/home/zyy/coco_work/cocoTest/MyVex_test/core_test/my_riscv_project/build/my_riscv_executable
architecture: riscv:rv32, flags 0x00000112:
EXEC_P, HAS_SYMS, D_PAGED
start address 0x00000000

Program Header:
0x70000003 off    0x00005490 vaddr 0x00000000 paddr 0x00000000 align 2**0
         filesz 0x00000041 memsz 0x00000000 flags r--
    LOAD off    0x00001000 vaddr 0x00000000 paddr 0x00000000 align 2**12
         filesz 0x00003ecc memsz 0x00003ecc flags r-x
    LOAD off    0x00005000 vaddr 0x00080000 paddr 0x00080000 align 2**12
         filesz 0x00000490 memsz 0x00000490 flags rw-

Sections:
Idx Name          Size      VMA       LMA       File off  Algn
  0 .text         00003ecc  00000000  00000000  00001000  2**6
                  CONTENTS, ALLOC, LOAD, READONLY, CODE
  1 .rodata       00000300  00080000  00080000  00005000  2**3
                  CONTENTS, ALLOC, LOAD, READONLY, DATA
  2 .data         00000008  00080300  00080300  00005300  2**2
                  CONTENTS, ALLOC, LOAD, DATA
  3 .bss          00000150  00080340  00080340  00005340  2**6
                  CONTENTS, ALLOC, LOAD, DATA
  4 .riscv.attributes 00000041  00000000  00000000  00005490  2**0
                  CONTENTS, READONLY
  5 .debug_line   000014f4  00000000  00000000  000054d1  2**0
                  CONTENTS, READONLY, DEBUGGING, OCTETS
  6 .debug_info   000012ab  00000000  00000000  000069c5  2**0
                  CONTENTS, READONLY, DEBUGGING, OCTETS
  7 .debug_abbrev 00000646  00000000  00000000  00007c70  2**0
                  CONTENTS, READONLY, DEBUGGING, OCTETS
  8 .debug_aranges 000000c8  00000000  00000000  000082b8  2**3
                  CONTENTS, READONLY, DEBUGGING, OCTETS
  9 .debug_str    0000068d  00000000  00000000  00008380  2**0
                  CONTENTS, READONLY, DEBUGGING, OCTETS
 10 .debug_ranges 00000020  00000000  00000000  00008a10  2**3
                  CONTENTS, READONLY, DEBUGGING, OCTETS
 11 .debug_line_str 000003ef  00000000  00000000  00008a30  2**0
                  CONTENTS, READONLY, DEBUGGING, OCTETS
 12 .debug_frame  0000065c  00000000  00000000  00008e20  2**2
                  CONTENTS, READONLY, DEBUGGING, OCTETS
 13 .debug_rnglists 00000017  00000000  00000000  0000947c  2**0
                  CONTENTS, READONLY, DEBUGGING, OCTETS
SYMBOL TABLE:
00000000 l    d  .text	00000000 .text
00080000 l    d  .rodata	00000000 .rodata
00080300 l    d  .data	00000000 .data
00080340 l    d  .bss	00000000 .bss
00000000 l    d  .riscv.attributes	00000000 .riscv.attributes
00000000 l    d  .debug_line	00000000 .debug_line
00000000 l    d  .debug_info	00000000 .debug_info
00000000 l    d  .debug_abbrev	00000000 .debug_abbrev
00000000 l    d  .debug_aranges	00000000 .debug_aranges
00000000 l    d  .debug_str	00000000 .debug_str
00000000 l    d  .debug_ranges	00000000 .debug_ranges
00000000 l    d  .debug_line_str	00000000 .debug_line_str
00000000 l    d  .debug_frame	00000000 .debug_frame
00000000 l    d  .debug_rnglists	00000000 .debug_rnglists
00000000 l    df *ABS*	00000000 crt.S.o
0000005e l       .text	00000000 .bss_done
00000054 l       .text	00000000 .bss_clear
00003e00 l       .text	00000000 vector_table
00003e90 l       .text	00000000 default_handler
00000000 l    df *ABS*	00000000 main.c
00000000 l    df *ABS*	00000000 arch_test_util.c
00000000 l    df *ABS*	00000000 sc_print.c
00000a26 l     F .text	0000005c sc_puts
00080340 l     O .bss	00000004 buflen.1
00080380 l     O .bss	00000100 buf.0
00000afc l     F .text	00000020 printf_putch
00000b1c l     F .text	0000002e print
00000b4a l     F .text	00000074 getint
00000bbe l     F .text	00000070 getuint
00000c2e l     F .text	0000016e printnum
00000d9c l     F .text	0000023a printdoubleF
00000fd6 l     F .text	000003a2 vprintfmt
00000000 l    df *ABS*	00000000 tiny_system.c
00000000 l    df *ABS*	00000000 virt_uart.c
00000000 l    df *ABS*	00000000 _divdi3.o
00000000 l    df *ABS*	00000000 _moddi3.o
00000000 l    df *ABS*	00000000 _udivdi3.o
00000000 l    df *ABS*	00000000 _umoddi3.o
00000000 l    df *ABS*	00000000 ledf2.o
00000000 l    df *ABS*	00000000 muldf3.o
00000000 l    df *ABS*	00000000 subdf3.o
00000000 l    df *ABS*	00000000 fixdfsi.o
00000000 l    df *ABS*	00000000 floatsidf.o
00000000 l    df *ABS*	00000000 fixdfdi.o
00000000 l    df *ABS*	00000000 floatdidf.o
00000000 l    df *ABS*	00000000 _clzsi2.o
00000000 l    df *ABS*	00000000 libc_a-strnlen.o
00000000 l    df *ABS*	00000000 libc_a-strlen.o
00000a82 g     F .text	0000007a putchar
000016d0 g     F .text	000003e4 .hidden __divdi3
00003aaa g     F .text	00000240 .hidden __floatdidf
00001528 g     F .text	00000022 sys_ecall
000001fa g     F .text	000000b2 test_imm
00003ec4 g       .text	00000000 _etext
00080340 g       .bss	00000000 _sbss
00080304 g     O .data	00000004 AA
00080300 g     O .data	00000004 hello
00003e80 g       .text	00000000 mext_handler
00003916 g     F .text	0000006e .hidden __floatsidf
000025b2 g     F .text	000000c6 .hidden __ltdf2
000014e2 g     F .text	0000001a disable_timer_interrupt
00080000 g       .rodata	00000000 _srodata
00001378 g     F .text	00000050 sc_printf
000013e4 g     F .text	0000003c mtimectrl_write
0000154a g     F .text	00000010 sys_ebreak
000014b2 g     F .text	00000016 interrupt_init
00003e70 g       .text	00000000 mtimer_handler
00002220 g     F .text	00000392 .hidden __umoddi3
00001482 g     F .text	00000026 mtimecmp_write
00001e78 g     F .text	000003a8 .hidden __udivdi3
000009fc g     F .text	0000002a test_mtime_interrupt
00001464 g     F .text	0000001e mtimecmp_read
00003d58 g     F .text	00000026 strnlen
00080484 g     O .bss	00000004 my_bss_var1
00080488 g       .bss	00000000 _ebss
00001698 g     F .text	00000038 uart_puts
0000069a g     F .text	00000362 test_float_ops
00003834 g     F .text	000000e2 .hidden __fixdfsi
000000ca g     F .text	000000aa test_arith
000025b2 g     F .text	000000c6 .hidden __ledf2
0000155a g     F .text	000000b4 trap_handler_c
00090000 g       *ABS*	00000000 __stack_top
00003cea g     F .text	0000006e .hidden __clzsi2
00001420 g     F .text	0000001e mtime_read
00000000 g       .text	00000000 _start
00090000 g       .text	00000000 __top_dmem
00000644 g     F .text	00000056 test_csr
000014c8 g     F .text	0000001a enable_timer_interrupt
000002ac g     F .text	000000c2 test_memory
00002678 g     F .text	0000068a .hidden __muldf3
00000078 g     F .text	00000052 main
00003e40 g       .text	00000000 trap_entry
00003e60 g       .text	00000000 msoft_handler
00001678 g     F .text	00000020 uart_putc
000014fc g     F .text	00000016 enable_software_interrupt
0000062c g       .text	00000000 label_bltu
00080200 g     O .rodata	00000100 .hidden __clz_tab
00003984 g     F .text	00000126 .hidden __fixdfdi
0000063a g       .text	00000000 label_bgeu
000013c8 g     F .text	0000001c mtimectrl_read
00080308 g       .data	00000000 _edata
0000060e g     F .text	00000036 test_branch
000014a8 g     F .text	0000000a halt
0000160e g     F .text	0000001c msoft_handler_c
0000162a g     F .text	00000032 mtimer_handler_c
00001512 g     F .text	00000016 disable_software_interrupt
00001ab4 g     F .text	000003c4 .hidden __moddi3
00080480 g     O .bss	00000004 my_bss_var0
00003d7e g     F .text	00000064 strlen
0000165c g     F .text	0000001c mext_handler_c
0000036e g     F .text	000002a0 test_muldiv
00000174 g     F .text	00000086 test_shift
00002d02 g     F .text	00000b32 .hidden __subdf3
0000143e g     F .text	00000026 mtime_write



Disassembly of section .text:

00000000 <_start>:
.globl main

.text
_start:
    # GPR复位：清零通用寄存器（x1 到 x31，x0 永远为 0）
    li t0, 0                  # 加载常数 0 到 t0
       0:	4281                	li	t0,0
    mv ra, t0                 # x1: 返回地址寄存器（ra）
       2:	8096                	mv	ra,t0
    mv s0, t0                 # x8: 帧指针（fp）
       4:	8416                	mv	s0,t0
    mv s1, t0
       6:	8496                	mv	s1,t0
    mv s2, t0
       8:	8916                	mv	s2,t0
    mv s3, t0
       a:	8996                	mv	s3,t0
    mv s4, t0
       c:	8a16                	mv	s4,t0
    mv s5, t0
       e:	8a96                	mv	s5,t0
    mv s6, t0
      10:	8b16                	mv	s6,t0
    mv s7, t0
      12:	8b96                	mv	s7,t0
    mv s8, t0
      14:	8c16                	mv	s8,t0
    mv s9, t0
      16:	8c96                	mv	s9,t0
    mv s10, t0
      18:	8d16                	mv	s10,t0
    mv s11, t0
      1a:	8d96                	mv	s11,t0
    mv a0, t0
      1c:	8516                	mv	a0,t0
    mv a1, t0
      1e:	8596                	mv	a1,t0
    mv a2, t0
      20:	8616                	mv	a2,t0
    mv a3, t0
      22:	8696                	mv	a3,t0
    mv a4, t0
      24:	8716                	mv	a4,t0
    mv a5, t0
      26:	8796                	mv	a5,t0
    mv a6, t0
      28:	8816                	mv	a6,t0
    mv a7, t0
      2a:	8896                	mv	a7,t0
    mv t1, t0
      2c:	8316                	mv	t1,t0
    mv t2, t0
      2e:	8396                	mv	t2,t0
    mv t3, t0
      30:	8e16                	mv	t3,t0
    mv t4, t0
      32:	8e96                	mv	t4,t0
    mv t5, t0
      34:	8f16                	mv	t5,t0
    mv t6, t0
      36:	8f96                	mv	t6,t0
    # 初始化堆栈指针 SP
    la sp, __stack_top        # 将堆栈顶部地址加载到 sp 寄存器中
      38:	00090117          	auipc	sp,0x90
      3c:	fc810113          	addi	sp,sp,-56 # 90000 <__top_dmem>
    # 初始化 .bss 段
    la t0, _sbss              # t0 = .bss 段起始地址
      40:	00080297          	auipc	t0,0x80
      44:	30028293          	addi	t0,t0,768 # 80340 <buflen.1>
    la t1, _ebss              # t1 = .bss 段结束地址
      48:	00080317          	auipc	t1,0x80
      4c:	44030313          	addi	t1,t1,1088 # 80488 <_ebss>
    bge t0, t1, .bss_done     # 如果 t0 >= t1，跳过清零
      50:	0062d763          	bge	t0,t1,5e <.bss_done>

00000054 <.bss_clear>:
.bss_clear:
    sw zero, 0(t0)            # 将零存储到 .bss 的当前地址
      54:	0002a023          	sw	zero,0(t0)
    addi t0, t0, 4            # 移动到下一个 4 字节地址
      58:	0291                	addi	t0,t0,4
    blt t0, t1, .bss_clear    # 如果 t0 < t1，继续清零
      5a:	fe62cde3          	blt	t0,t1,54 <.bss_clear>

0000005e <.bss_done>:
.bss_done:

    # ========【新增：设置mtvec为向量模式并指向向量表】========
    la   t0, vector_table             # vector_table为中断向量表基址
      5e:	00004297          	auipc	t0,0x4
      62:	da228293          	addi	t0,t0,-606 # 3e00 <vector_table>
    li   t1, 1                        # 1 = vectored mode
      66:	4305                	li	t1,1
    slli t1, t1, 0                    # MODE=1 (最低位)
      68:	00031313          	slli	t1,t1,0x0
    or   t0, t0, t1                   # base | 1
      6c:	0062e2b3          	or	t0,t0,t1
    csrw mtvec, t0
      70:	30529073          	csrw	mtvec,t0

    # 跳转到 main 函数
    call main
      74:	2011                	jal	78 <main>

.Lhalt:
    j .Lhalt
      76:	a001                	j	76 <.bss_done+0x18>

00000078 <main>:
// bss: 定义未初始化的全局变量
uint32_t my_bss_var0; // 未初始化的全局变量
uint32_t my_bss_var1; // 未初始化的全局变量


int main() {
      78:	1141                	addi	sp,sp,-16
      7a:	c606                	sw	ra,12(sp)
      7c:	c422                	sw	s0,8(sp)
      7e:	0800                	addi	s0,sp,16
    // 检查 bss 初始化
    if (my_bss_var0 != 0 || my_bss_var1 != 0) {
      80:	000807b7          	lui	a5,0x80
      84:	4807a783          	lw	a5,1152(a5) # 80480 <my_bss_var0>
      88:	e791                	bnez	a5,94 <main+0x1c>
      8a:	000807b7          	lui	a5,0x80
      8e:	4847a783          	lw	a5,1156(a5) # 80484 <my_bss_var1>
      92:	c391                	beqz	a5,96 <main+0x1e>
        // 如果变量未清零，说明 .bss 初始化失败
        while (1);
      94:	a001                	j	94 <main+0x1c>
    }
    // 开始实行 AND、SUB、XOR、OR、AND 测试
    // test_arith(AA);
    // 开始实行 SLL SRL SRA SLT SLTU测试
    test_shift();
      96:	28f9                	jal	174 <test_shift>
    // 开始实行 MUL、DIV 测试
    test_muldiv();
      98:	2cd9                	jal	36e <test_muldiv>
    // 立即数运算测试
    // test_imm();
    // 测试内存访问
    test_memory();
      9a:	2c09                	jal	2ac <test_memory>
    // 测试分支指令
    test_branch();
      9c:	2b8d                	jal	60e <test_branch>
    // test_mtime_interrupt();
    // 测试浮点加法
    // test_float_ops();
    // ========== end ==========
    // 插入一条 NOP 指令
    __asm__ volatile ("nop");
      9e:	0001                	nop
    // 测试UART
    uart_puts(hello);
      a0:	000807b7          	lui	a5,0x80
      a4:	3007a783          	lw	a5,768(a5) # 80300 <hello>
      a8:	853e                	mv	a0,a5
      aa:	5ee010ef          	jal	1698 <uart_puts>
    // 测试Terminal 打印，注意testbench仿真时间需要根据输出内容增加，不然会导致看不到输出！
    sc_printf("Hello world\n");
      ae:	000807b7          	lui	a5,0x80
      b2:	01078513          	addi	a0,a5,16 # 80010 <_srodata+0x10>
      b6:	2c2010ef          	jal	1378 <sc_printf>
    // int sqrt_result = sqrt(9);
    // sc_printf("sqrt(%d) = %d\n", 9, sqrt_result);
    // sc_printf("value = %f\n", 3.1415926);
    // 模拟 halt
    halt();
      ba:	3ee010ef          	jal	14a8 <halt>

    return 0;  // 这个返回值不会被使用，因为程序已 halt
      be:	4781                	li	a5,0
}
      c0:	853e                	mv	a0,a5
      c2:	40b2                	lw	ra,12(sp)
      c4:	4422                	lw	s0,8(sp)
      c6:	0141                	addi	sp,sp,16
      c8:	8082                	ret

000000ca <test_arith>:
#include "arch_test_util.h"
#include "tiny_system.h"
#include "riscv_arch.h"
#include "sc_print.h"

void test_arith(uint32_t AA) {
      ca:	7139                	addi	sp,sp,-64
      cc:	de06                	sw	ra,60(sp)
      ce:	dc22                	sw	s0,56(sp)
      d0:	0080                	addi	s0,sp,64
      d2:	fca42623          	sw	a0,-52(s0)
    int32_t a = 10, b = 20, add_result, sub_result, xor_result, or_result, and_result;
      d6:	47a9                	li	a5,10
      d8:	fef42623          	sw	a5,-20(s0)
      dc:	47d1                	li	a5,20
      de:	fef42423          	sw	a5,-24(s0)
    add_result = a + b + AA; // 40 
      e2:	fec42703          	lw	a4,-20(s0)
      e6:	fe842783          	lw	a5,-24(s0)
      ea:	97ba                	add	a5,a5,a4
      ec:	873e                	mv	a4,a5
      ee:	fcc42783          	lw	a5,-52(s0)
      f2:	97ba                	add	a5,a5,a4
      f4:	fef42223          	sw	a5,-28(s0)
    sub_result = add_result - b; // 20
      f8:	fe442703          	lw	a4,-28(s0)
      fc:	fe842783          	lw	a5,-24(s0)
     100:	40f707b3          	sub	a5,a4,a5
     104:	fef42023          	sw	a5,-32(s0)
    xor_result = a ^ sub_result; // 30
     108:	fec42703          	lw	a4,-20(s0)
     10c:	fe042783          	lw	a5,-32(s0)
     110:	8fb9                	xor	a5,a5,a4
     112:	fcf42e23          	sw	a5,-36(s0)
    or_result  = xor_result | sub_result; // 30
     116:	fdc42703          	lw	a4,-36(s0)
     11a:	fe042783          	lw	a5,-32(s0)
     11e:	8fd9                	or	a5,a5,a4
     120:	fcf42c23          	sw	a5,-40(s0)
    and_result = or_result & add_result; // 8
     124:	fd842703          	lw	a4,-40(s0)
     128:	fe442783          	lw	a5,-28(s0)
     12c:	8ff9                	and	a5,a5,a4
     12e:	fcf42a23          	sw	a5,-44(s0)
    if (add_result != 40 || sub_result != 20 || xor_result != 30 || or_result != 30 || and_result != 8) {
     132:	fe442703          	lw	a4,-28(s0)
     136:	02800793          	li	a5,40
     13a:	02f71663          	bne	a4,a5,166 <test_arith+0x9c>
     13e:	fe042703          	lw	a4,-32(s0)
     142:	47d1                	li	a5,20
     144:	02f71163          	bne	a4,a5,166 <test_arith+0x9c>
     148:	fdc42703          	lw	a4,-36(s0)
     14c:	47f9                	li	a5,30
     14e:	00f71c63          	bne	a4,a5,166 <test_arith+0x9c>
     152:	fd842703          	lw	a4,-40(s0)
     156:	47f9                	li	a5,30
     158:	00f71763          	bne	a4,a5,166 <test_arith+0x9c>
     15c:	fd442703          	lw	a4,-44(s0)
     160:	47a1                	li	a5,8
     162:	00f70463          	beq	a4,a5,16a <test_arith+0xa0>
        halt(); // 如果结果不符合预期，则调用 halt 函数
     166:	342010ef          	jal	14a8 <halt>
    }
}
     16a:	0001                	nop
     16c:	50f2                	lw	ra,60(sp)
     16e:	5462                	lw	s0,56(sp)
     170:	6121                	addi	sp,sp,64
     172:	8082                	ret

00000174 <test_shift>:

void test_shift() {
     174:	7139                	addi	sp,sp,-64
     176:	de22                	sw	s0,60(sp)
     178:	0080                	addi	s0,sp,64
    int32_t a = 8, b = 4, sub_result, xor_result, or_result, and_result, mul_result, div_result;
     17a:	47a1                	li	a5,8
     17c:	fef42623          	sw	a5,-20(s0)
     180:	4791                	li	a5,4
     182:	fef42423          	sw	a5,-24(s0)
    uint32_t ua = 8, ub = 4;
     186:	47a1                	li	a5,8
     188:	fef42223          	sw	a5,-28(s0)
     18c:	4791                	li	a5,4
     18e:	fef42023          	sw	a5,-32(s0)
    asm("sll %0, %1, %2" : "=r" (sub_result) : "r" (a), "r" (b));
     192:	fec42783          	lw	a5,-20(s0)
     196:	fe842703          	lw	a4,-24(s0)
     19a:	00e797b3          	sll	a5,a5,a4
     19e:	fcf42e23          	sw	a5,-36(s0)
    asm("srl %0, %1, %2" : "=r" (xor_result) : "r" (a), "r" (b));
     1a2:	fec42783          	lw	a5,-20(s0)
     1a6:	fe842703          	lw	a4,-24(s0)
     1aa:	00e7d7b3          	srl	a5,a5,a4
     1ae:	fcf42c23          	sw	a5,-40(s0)
    asm("sra %0, %1, %2" : "=r" (or_result)  : "r" (a), "r" (b));
     1b2:	fec42783          	lw	a5,-20(s0)
     1b6:	fe842703          	lw	a4,-24(s0)
     1ba:	40e7d7b3          	sra	a5,a5,a4
     1be:	fcf42a23          	sw	a5,-44(s0)
    asm("slt %0, %1, %2" : "=r" (and_result): "r" (a), "r" (b));
     1c2:	fec42783          	lw	a5,-20(s0)
     1c6:	fe842703          	lw	a4,-24(s0)
     1ca:	00e7a7b3          	slt	a5,a5,a4
     1ce:	fcf42823          	sw	a5,-48(s0)
    asm("sltu %0, %1, %2": "=r" (mul_result): "r" (ua), "r" (ub));
     1d2:	fe442783          	lw	a5,-28(s0)
     1d6:	fe042703          	lw	a4,-32(s0)
     1da:	00e7b7b3          	sltu	a5,a5,a4
     1de:	fcf42623          	sw	a5,-52(s0)
    asm("sltu %0, %1, %2": "=r" (div_result): "r" (ub), "r" (ua));
     1e2:	fe042783          	lw	a5,-32(s0)
     1e6:	fe442703          	lw	a4,-28(s0)
     1ea:	00e7b7b3          	sltu	a5,a5,a4
     1ee:	fcf42423          	sw	a5,-56(s0)
    // 可以根据需要添加校验
}
     1f2:	0001                	nop
     1f4:	5472                	lw	s0,60(sp)
     1f6:	6121                	addi	sp,sp,64
     1f8:	8082                	ret

000001fa <test_imm>:

void test_imm() {
     1fa:	7139                	addi	sp,sp,-64
     1fc:	de22                	sw	s0,60(sp)
     1fe:	0080                	addi	s0,sp,64
    int32_t a = 8, c = 15, add_result, xor_result, or_result, mul_result, and_result, div_result;
     200:	47a1                	li	a5,8
     202:	fef42623          	sw	a5,-20(s0)
     206:	47bd                	li	a5,15
     208:	fef42423          	sw	a5,-24(s0)
    uint32_t ua = 8;
     20c:	47a1                	li	a5,8
     20e:	fef42223          	sw	a5,-28(s0)
    asm("xori %0, %1, %2" : "=r" (add_result) : "r" (a), "i" (4));
     212:	fec42783          	lw	a5,-20(s0)
     216:	0047c793          	xori	a5,a5,4
     21a:	fef42023          	sw	a5,-32(s0)
    asm("ori %0, %1, %2"  : "=r" (xor_result): "r" (a), "i" (4));
     21e:	fec42783          	lw	a5,-20(s0)
     222:	0047e793          	ori	a5,a5,4
     226:	fcf42e23          	sw	a5,-36(s0)
    asm("andi %0, %1, %2" : "=r" (or_result) : "r" (a), "i" (4));
     22a:	fec42783          	lw	a5,-20(s0)
     22e:	8b91                	andi	a5,a5,4
     230:	fcf42c23          	sw	a5,-40(s0)
    asm("xori %0, %1, %2" : "=r" (or_result) : "r" (ua), "i" (4));
     234:	fe442783          	lw	a5,-28(s0)
     238:	0047c793          	xori	a5,a5,4
     23c:	fcf42c23          	sw	a5,-40(s0)
    asm("ori %0, %1, %2"  : "=r" (and_result): "r" (ua), "i" (4));
     240:	fe442783          	lw	a5,-28(s0)
     244:	0047e793          	ori	a5,a5,4
     248:	fcf42a23          	sw	a5,-44(s0)
    asm("andi %0, %1, %2" : "=r" (mul_result): "r" (ua), "i" (4));
     24c:	fe442783          	lw	a5,-28(s0)
     250:	8b91                	andi	a5,a5,4
     252:	fcf42823          	sw	a5,-48(s0)
    asm("xori %0, %1, %2" : "=r" (div_result): "r" (c), "i" (255));
     256:	fe842783          	lw	a5,-24(s0)
     25a:	0ff7c793          	xori	a5,a5,255
     25e:	fcf42623          	sw	a5,-52(s0)
    asm("slli %0, %1, %2" : "=r" (add_result): "r" (a), "i" (2));
     262:	fec42783          	lw	a5,-20(s0)
     266:	078a                	slli	a5,a5,0x2
     268:	fef42023          	sw	a5,-32(s0)
    asm("srli %0, %1, %2" : "=r" (and_result): "r" (a), "i" (2));
     26c:	fec42783          	lw	a5,-20(s0)
     270:	8389                	srli	a5,a5,0x2
     272:	fcf42a23          	sw	a5,-44(s0)
    a = -8;
     276:	57e1                	li	a5,-8
     278:	fef42623          	sw	a5,-20(s0)
    asm("srai %0, %1, %2" : "=r" (mul_result): "r" (a), "i" (2));
     27c:	fec42783          	lw	a5,-20(s0)
     280:	8789                	srai	a5,a5,0x2
     282:	fcf42823          	sw	a5,-48(s0)
    a = 8;
     286:	47a1                	li	a5,8
     288:	fef42623          	sw	a5,-20(s0)
    asm("slti %0, %1, %2" : "=r" (add_result): "r" (a), "i" (15));
     28c:	fec42783          	lw	a5,-20(s0)
     290:	00f7a793          	slti	a5,a5,15
     294:	fef42023          	sw	a5,-32(s0)
    asm("sltiu %0, %1, %2": "=r" (add_result): "r" (ua), "i" (15));
     298:	fe442783          	lw	a5,-28(s0)
     29c:	00f7b793          	sltiu	a5,a5,15
     2a0:	fef42023          	sw	a5,-32(s0)
    // 可以根据需要添加校验
}
     2a4:	0001                	nop
     2a6:	5472                	lw	s0,60(sp)
     2a8:	6121                	addi	sp,sp,64
     2aa:	8082                	ret

000002ac <test_memory>:

void test_memory() {
     2ac:	711d                	addi	sp,sp,-96
     2ae:	cea2                	sw	s0,92(sp)
     2b0:	1080                	addi	s0,sp,96
    char memory[32] = {0xFF, 0xF7, 0x01, 0x02, 0x00};
     2b2:	0201f7b7          	lui	a5,0x201f
     2b6:	7ff78793          	addi	a5,a5,2047 # 201f7ff <__top_dmem+0x1f8f7ff>
     2ba:	fcf42223          	sw	a5,-60(s0)
     2be:	fc042423          	sw	zero,-56(s0)
     2c2:	fc042623          	sw	zero,-52(s0)
     2c6:	fc042823          	sw	zero,-48(s0)
     2ca:	fc042a23          	sw	zero,-44(s0)
     2ce:	fc042c23          	sw	zero,-40(s0)
     2d2:	fc042e23          	sw	zero,-36(s0)
     2d6:	fe042023          	sw	zero,-32(s0)
    short memory_half[16] = {0xFFFF, 0x7FFF, 0x0001, 0xFF00};
     2da:	fa042223          	sw	zero,-92(s0)
     2de:	fa042423          	sw	zero,-88(s0)
     2e2:	fa042623          	sw	zero,-84(s0)
     2e6:	fa042823          	sw	zero,-80(s0)
     2ea:	fa042a23          	sw	zero,-76(s0)
     2ee:	fa042c23          	sw	zero,-72(s0)
     2f2:	fa042e23          	sw	zero,-68(s0)
     2f6:	fc042023          	sw	zero,-64(s0)
     2fa:	57fd                	li	a5,-1
     2fc:	faf41223          	sh	a5,-92(s0)
     300:	77e1                	lui	a5,0xffff8
     302:	fff7c793          	not	a5,a5
     306:	faf41323          	sh	a5,-90(s0)
     30a:	4785                	li	a5,1
     30c:	faf41423          	sh	a5,-88(s0)
     310:	f0000793          	li	a5,-256
     314:	faf41523          	sh	a5,-86(s0)
    int lb_result, lh_result, lhu_result;

    asm("lb %0, 0(%1)" : "=r" (lb_result) : "r" (&memory[0]));
     318:	fc440793          	addi	a5,s0,-60
     31c:	00078783          	lb	a5,0(a5) # ffff8000 <__top_dmem+0xfff68000>
     320:	fef42623          	sw	a5,-20(s0)
    asm("lb %0, 1(%1)" : "=r" (lb_result) : "r" (&memory[1]));
     324:	fc440793          	addi	a5,s0,-60
     328:	0785                	addi	a5,a5,1
     32a:	00178783          	lb	a5,1(a5)
     32e:	fef42623          	sw	a5,-20(s0)
    asm("lh %0, 0(%1)" : "=r" (lh_result) : "r" (&memory[0]));
     332:	fc440793          	addi	a5,s0,-60
     336:	00079783          	lh	a5,0(a5)
     33a:	fef42423          	sw	a5,-24(s0)
    asm("lh %0, 2(%1)" : "=r" (lh_result) : "r" (&memory[2]));
     33e:	fc440793          	addi	a5,s0,-60
     342:	0789                	addi	a5,a5,2
     344:	00279783          	lh	a5,2(a5)
     348:	fef42423          	sw	a5,-24(s0)
    asm("lhu %0, 0(%1)": "=r" (lhu_result): "r" (&memory[0]));
     34c:	fc440793          	addi	a5,s0,-60
     350:	0007d783          	lhu	a5,0(a5)
     354:	fef42223          	sw	a5,-28(s0)
    asm("lhu %0, 2(%1)": "=r" (lhu_result): "r" (&memory[2]));
     358:	fc440793          	addi	a5,s0,-60
     35c:	0789                	addi	a5,a5,2
     35e:	0027d783          	lhu	a5,2(a5)
     362:	fef42223          	sw	a5,-28(s0)
    // 可以根据需要添加校验
}
     366:	0001                	nop
     368:	4476                	lw	s0,92(sp)
     36a:	6125                	addi	sp,sp,96
     36c:	8082                	ret

0000036e <test_muldiv>:

void test_muldiv() {
     36e:	7139                	addi	sp,sp,-64
     370:	de06                	sw	ra,60(sp)
     372:	dc22                	sw	s0,56(sp)
     374:	0080                	addi	s0,sp,64
    // 1. 基本 MULH/MULHSU/MULHU 测试（128位结果高32位）
    int32_t a = 0x12345678, b = 0x87654321;
     376:	123457b7          	lui	a5,0x12345
     37a:	67878793          	addi	a5,a5,1656 # 12345678 <__top_dmem+0x122b5678>
     37e:	fef42623          	sw	a5,-20(s0)
     382:	876547b7          	lui	a5,0x87654
     386:	32178793          	addi	a5,a5,801 # 87654321 <__top_dmem+0x875c4321>
     38a:	fef42423          	sw	a5,-24(s0)
    uint32_t ua = 0x12345678, ub = 0x87654321;
     38e:	123457b7          	lui	a5,0x12345
     392:	67878793          	addi	a5,a5,1656 # 12345678 <__top_dmem+0x122b5678>
     396:	fef42223          	sw	a5,-28(s0)
     39a:	876547b7          	lui	a5,0x87654
     39e:	32178793          	addi	a5,a5,801 # 87654321 <__top_dmem+0x875c4321>
     3a2:	fef42023          	sw	a5,-32(s0)

    int32_t mulh_result, mulhsu_result, mulhu_result;
    asm("mulh %0, %1, %2"   : "=r"(mulh_result)   : "r"(a), "r"(b));
     3a6:	fec42783          	lw	a5,-20(s0)
     3aa:	fe842703          	lw	a4,-24(s0)
     3ae:	02e797b3          	mulh	a5,a5,a4
     3b2:	fcf42e23          	sw	a5,-36(s0)
    asm("mulhsu %0, %1, %2" : "=r"(mulhsu_result) : "r"(a), "r"(ub));
     3b6:	fec42783          	lw	a5,-20(s0)
     3ba:	fe042703          	lw	a4,-32(s0)
     3be:	02e7a7b3          	mulhsu	a5,a5,a4
     3c2:	fcf42c23          	sw	a5,-40(s0)
    asm("mulhu %0, %1, %2"  : "=r"(mulhu_result)  : "r"(ua), "r"(ub));
     3c6:	fe442783          	lw	a5,-28(s0)
     3ca:	fe042703          	lw	a4,-32(s0)
     3ce:	02e7b7b3          	mulhu	a5,a5,a4
     3d2:	fcf42a23          	sw	a5,-44(s0)
    // 这里只做调用，数值校验可用 printf 打印后人工或自动比对

    // 2. MUL 指令测试（低32位结果），简单数据校验
    a = -11; b = 7;
     3d6:	57d5                	li	a5,-11
     3d8:	fef42623          	sw	a5,-20(s0)
     3dc:	479d                	li	a5,7
     3de:	fef42423          	sw	a5,-24(s0)
    int32_t mul_result;
    asm("mul %0, %1, %2" : "=r"(mul_result) : "r"(a), "r"(b));
     3e2:	fec42783          	lw	a5,-20(s0)
     3e6:	fe842703          	lw	a4,-24(s0)
     3ea:	02e787b3          	mul	a5,a5,a4
     3ee:	fcf42823          	sw	a5,-48(s0)
    if (mul_result != a * b) halt();  // 简单断言
     3f2:	fec42703          	lw	a4,-20(s0)
     3f6:	fe842783          	lw	a5,-24(s0)
     3fa:	02f707b3          	mul	a5,a4,a5
     3fe:	fd042703          	lw	a4,-48(s0)
     402:	00f70463          	beq	a4,a5,40a <test_muldiv+0x9c>
     406:	0a2010ef          	jal	14a8 <halt>
    a = 0x7fffffff; b = 2;
     40a:	800007b7          	lui	a5,0x80000
     40e:	17fd                	addi	a5,a5,-1 # 7fffffff <__top_dmem+0x7ff6ffff>
     410:	fef42623          	sw	a5,-20(s0)
     414:	4789                	li	a5,2
     416:	fef42423          	sw	a5,-24(s0)
    asm("mul %0, %1, %2" : "=r"(mul_result) : "r"(a), "r"(b));
     41a:	fec42783          	lw	a5,-20(s0)
     41e:	fe842703          	lw	a4,-24(s0)
     422:	02e787b3          	mul	a5,a5,a4
     426:	fcf42823          	sw	a5,-48(s0)
    if (mul_result != (a * b)) halt();
     42a:	fec42703          	lw	a4,-20(s0)
     42e:	fe842783          	lw	a5,-24(s0)
     432:	02f707b3          	mul	a5,a4,a5
     436:	fd042703          	lw	a4,-48(s0)
     43a:	00f70463          	beq	a4,a5,442 <test_muldiv+0xd4>
     43e:	06a010ef          	jal	14a8 <halt>

    // 3. DIV/DIVU 测试
    a = -10; b = 3;
     442:	57d9                	li	a5,-10
     444:	fef42623          	sw	a5,-20(s0)
     448:	478d                	li	a5,3
     44a:	fef42423          	sw	a5,-24(s0)
    ua = 10; ub = 3;
     44e:	47a9                	li	a5,10
     450:	fef42223          	sw	a5,-28(s0)
     454:	478d                	li	a5,3
     456:	fef42023          	sw	a5,-32(s0)
    int32_t div_result, divu_result;
    asm("div %0, %1, %2"  : "=r"(div_result)  : "r"(a), "r"(b));
     45a:	fec42783          	lw	a5,-20(s0)
     45e:	fe842703          	lw	a4,-24(s0)
     462:	02e7c7b3          	div	a5,a5,a4
     466:	fcf42623          	sw	a5,-52(s0)
    asm("divu %0, %1, %2" : "=r"(divu_result) : "r"(ua), "r"(ub));
     46a:	fe442783          	lw	a5,-28(s0)
     46e:	fe042703          	lw	a4,-32(s0)
     472:	02e7d7b3          	divu	a5,a5,a4
     476:	fcf42423          	sw	a5,-56(s0)
    if (div_result != (a / b)) halt();   // -10 / 3 == -3
     47a:	fec42703          	lw	a4,-20(s0)
     47e:	fe842783          	lw	a5,-24(s0)
     482:	02f747b3          	div	a5,a4,a5
     486:	fcc42703          	lw	a4,-52(s0)
     48a:	00f70463          	beq	a4,a5,492 <test_muldiv+0x124>
     48e:	01a010ef          	jal	14a8 <halt>
    if (divu_result != (ua / ub)) halt(); // 10 / 3 == 3
     492:	fe442703          	lw	a4,-28(s0)
     496:	fe042783          	lw	a5,-32(s0)
     49a:	02f75733          	divu	a4,a4,a5
     49e:	fc842783          	lw	a5,-56(s0)
     4a2:	00f70463          	beq	a4,a5,4aa <test_muldiv+0x13c>
     4a6:	002010ef          	jal	14a8 <halt>

    // 4. REM/REMU 测试
    int32_t rem_result, remu_result;
    asm("rem %0, %1, %2"  : "=r"(rem_result)  : "r"(a), "r"(b));
     4aa:	fec42783          	lw	a5,-20(s0)
     4ae:	fe842703          	lw	a4,-24(s0)
     4b2:	02e7e7b3          	rem	a5,a5,a4
     4b6:	fcf42223          	sw	a5,-60(s0)
    asm("remu %0, %1, %2" : "=r"(remu_result) : "r"(ua), "r"(ub));
     4ba:	fe442783          	lw	a5,-28(s0)
     4be:	fe042703          	lw	a4,-32(s0)
     4c2:	02e7f7b3          	remu	a5,a5,a4
     4c6:	fcf42023          	sw	a5,-64(s0)
    if (rem_result != (a % b)) halt();   // -10 % 3 == -1
     4ca:	fec42703          	lw	a4,-20(s0)
     4ce:	fe842783          	lw	a5,-24(s0)
     4d2:	02f767b3          	rem	a5,a4,a5
     4d6:	fc442703          	lw	a4,-60(s0)
     4da:	00f70463          	beq	a4,a5,4e2 <test_muldiv+0x174>
     4de:	7cb000ef          	jal	14a8 <halt>
    if (remu_result != (ua % ub)) halt(); // 10 % 3 == 1
     4e2:	fe442703          	lw	a4,-28(s0)
     4e6:	fe042783          	lw	a5,-32(s0)
     4ea:	02f77733          	remu	a4,a4,a5
     4ee:	fc042783          	lw	a5,-64(s0)
     4f2:	00f70463          	beq	a4,a5,4fa <test_muldiv+0x18c>
     4f6:	7b3000ef          	jal	14a8 <halt>

    // 5. 边界/特殊情况测试
    // 除数为0时，结果未定义（不同实现结果不同），这里不判断，只做调用
    a = 123; b = 0;
     4fa:	07b00793          	li	a5,123
     4fe:	fef42623          	sw	a5,-20(s0)
     502:	fe042423          	sw	zero,-24(s0)
    asm("div %0, %1, %2"  : "=r"(div_result) : "r"(a), "r"(b));
     506:	fec42783          	lw	a5,-20(s0)
     50a:	fe842703          	lw	a4,-24(s0)
     50e:	02e7c7b3          	div	a5,a5,a4
     512:	fcf42623          	sw	a5,-52(s0)
    asm("rem %0, %1, %2"  : "=r"(rem_result) : "r"(a), "r"(b));
     516:	fec42783          	lw	a5,-20(s0)
     51a:	fe842703          	lw	a4,-24(s0)
     51e:	02e7e7b3          	rem	a5,a5,a4
     522:	fcf42223          	sw	a5,-60(s0)

    ua = 123; ub = 0;
     526:	07b00793          	li	a5,123
     52a:	fef42223          	sw	a5,-28(s0)
     52e:	fe042023          	sw	zero,-32(s0)
    asm("divu %0, %1, %2" : "=r"(divu_result) : "r"(ua), "r"(ub));
     532:	fe442783          	lw	a5,-28(s0)
     536:	fe042703          	lw	a4,-32(s0)
     53a:	02e7d7b3          	divu	a5,a5,a4
     53e:	fcf42423          	sw	a5,-56(s0)
    asm("remu %0, %1, %2" : "=r"(remu_result) : "r"(ua), "r"(ub));
     542:	fe442783          	lw	a5,-28(s0)
     546:	fe042703          	lw	a4,-32(s0)
     54a:	02e7f7b3          	remu	a5,a5,a4
     54e:	fcf42023          	sw	a5,-64(s0)

    // INT32_MIN / -1 溢出情况
    a = (int32_t)0x80000000; b = -1;
     552:	800007b7          	lui	a5,0x80000
     556:	fef42623          	sw	a5,-20(s0)
     55a:	57fd                	li	a5,-1
     55c:	fef42423          	sw	a5,-24(s0)
    asm("div %0, %1, %2"  : "=r"(div_result) : "r"(a), "r"(b));
     560:	fec42783          	lw	a5,-20(s0)
     564:	fe842703          	lw	a4,-24(s0)
     568:	02e7c7b3          	div	a5,a5,a4
     56c:	fcf42623          	sw	a5,-52(s0)
    asm("rem %0, %1, %2"  : "=r"(rem_result) : "r"(a), "r"(b));
     570:	fec42783          	lw	a5,-20(s0)
     574:	fe842703          	lw	a4,-24(s0)
     578:	02e7e7b3          	rem	a5,a5,a4
     57c:	fcf42223          	sw	a5,-60(s0)
    // 结果未定义，不做断言

    // 6. 大数无符号乘除
    ua = 0xFFFFFFFE; ub = 2;
     580:	57f9                	li	a5,-2
     582:	fef42223          	sw	a5,-28(s0)
     586:	4789                	li	a5,2
     588:	fef42023          	sw	a5,-32(s0)
    asm("mul %0, %1, %2" : "=r"(mul_result) : "r"(ua), "r"(ub));
     58c:	fe442783          	lw	a5,-28(s0)
     590:	fe042703          	lw	a4,-32(s0)
     594:	02e787b3          	mul	a5,a5,a4
     598:	fcf42823          	sw	a5,-48(s0)
    if (mul_result != (int32_t)(ua * ub)) halt();
     59c:	fe442703          	lw	a4,-28(s0)
     5a0:	fe042783          	lw	a5,-32(s0)
     5a4:	02f70733          	mul	a4,a4,a5
     5a8:	fd042783          	lw	a5,-48(s0)
     5ac:	00f70463          	beq	a4,a5,5b4 <test_muldiv+0x246>
     5b0:	6f9000ef          	jal	14a8 <halt>

    asm("divu %0, %1, %2" : "=r"(divu_result) : "r"(ua), "r"(ub));
     5b4:	fe442783          	lw	a5,-28(s0)
     5b8:	fe042703          	lw	a4,-32(s0)
     5bc:	02e7d7b3          	divu	a5,a5,a4
     5c0:	fcf42423          	sw	a5,-56(s0)
    asm("remu %0, %1, %2" : "=r"(remu_result) : "r"(ua), "r"(ub));
     5c4:	fe442783          	lw	a5,-28(s0)
     5c8:	fe042703          	lw	a4,-32(s0)
     5cc:	02e7f7b3          	remu	a5,a5,a4
     5d0:	fcf42023          	sw	a5,-64(s0)
    if (divu_result != (ua / ub)) halt();
     5d4:	fe442703          	lw	a4,-28(s0)
     5d8:	fe042783          	lw	a5,-32(s0)
     5dc:	02f75733          	divu	a4,a4,a5
     5e0:	fc842783          	lw	a5,-56(s0)
     5e4:	00f70463          	beq	a4,a5,5ec <test_muldiv+0x27e>
     5e8:	6c1000ef          	jal	14a8 <halt>
    if (remu_result != (ua % ub)) halt();
     5ec:	fe442703          	lw	a4,-28(s0)
     5f0:	fe042783          	lw	a5,-32(s0)
     5f4:	02f77733          	remu	a4,a4,a5
     5f8:	fc042783          	lw	a5,-64(s0)
     5fc:	00f70463          	beq	a4,a5,604 <test_muldiv+0x296>
     600:	6a9000ef          	jal	14a8 <halt>

    // 7. 可选：打印测试结果用于人工核对
    // sc_printf("MUL/DIV/REM 指令测试通过\n");
}
     604:	0001                	nop
     606:	50f2                	lw	ra,60(sp)
     608:	5462                	lw	s0,56(sp)
     60a:	6121                	addi	sp,sp,64
     60c:	8082                	ret

0000060e <test_branch>:


void test_branch() {
     60e:	1101                	addi	sp,sp,-32
     610:	ce22                	sw	s0,28(sp)
     612:	1000                	addi	s0,sp,32
    uint32_t ua = 10, ub = 20;
     614:	47a9                	li	a5,10
     616:	fef42623          	sw	a5,-20(s0)
     61a:	47d1                	li	a5,20
     61c:	fef42423          	sw	a5,-24(s0)
    asm(
     620:	fec42783          	lw	a5,-20(s0)
     624:	fe842703          	lw	a4,-24(s0)
     628:	00e7e263          	bltu	a5,a4,62c <label_bltu>

0000062c <label_bltu>:
        "bltu %0, %1, label_bltu\n"
        : : "r" (ua), "r" (ub)
    );
    asm(
     62c:	0001                	nop
        ".global label_bltu\n"
        "label_bltu:\n"
        "nop\n"
    );
    asm(
     62e:	fec42783          	lw	a5,-20(s0)
     632:	fe842703          	lw	a4,-24(s0)
     636:	00e7f263          	bgeu	a5,a4,63a <label_bgeu>

0000063a <label_bgeu>:
        "bgeu %0, %1, label_bgeu\n"
        : : "r" (ua), "r" (ub)
    );
    asm(
     63a:	0001                	nop
        ".global label_bgeu\n"
        "label_bgeu:\n"
        "nop\n"
    );
}
     63c:	0001                	nop
     63e:	4472                	lw	s0,28(sp)
     640:	6105                	addi	sp,sp,32
     642:	8082                	ret

00000644 <test_csr>:

void test_csr() {
     644:	7179                	addi	sp,sp,-48
     646:	d622                	sw	s0,44(sp)
     648:	1800                	addi	s0,sp,48
    // 1. 读 mstatus,请忽略报错 csrrs
    uint32_t old_mstatus = read_csr(mstatus); 
     64a:	300027f3          	csrr	a5,mstatus
     64e:	fef42623          	sw	a5,-20(s0)
     652:	fec42783          	lw	a5,-20(s0)
     656:	fef42423          	sw	a5,-24(s0)
    // 2. 设置 MIE (Machine Interrupt Enable) 位 csrrsi
    set_csr(mstatus, MSTATUS_MIE);
     65a:	300467f3          	csrrsi	a5,mstatus,8
     65e:	fef42223          	sw	a5,-28(s0)
    // 3. 清除 MIE 位 csrrci
    clear_csr(mstatus, MSTATUS_MIE);
     662:	300477f3          	csrrci	a5,mstatus,8
     666:	fef42023          	sw	a5,-32(s0)
    // 4. 原子交换 mstatus（写新值，返回旧值）csrrw
    uint32_t new_val = 0xA5A5A5A5;
     66a:	a5a5a7b7          	lui	a5,0xa5a5a
     66e:	5a578793          	addi	a5,a5,1445 # a5a5a5a5 <__top_dmem+0xa59ca5a5>
     672:	fcf42e23          	sw	a5,-36(s0)
    uint32_t swapped_val = swap_csr(mstatus, new_val);
     676:	fdc42783          	lw	a5,-36(s0)
     67a:	300797f3          	csrrw	a5,mstatus,a5
     67e:	fcf42c23          	sw	a5,-40(s0)
     682:	fd842783          	lw	a5,-40(s0)
     686:	fcf42a23          	sw	a5,-44(s0)
    // 5. 恢复原始 mstatus
    write_csr(mstatus, old_mstatus);
     68a:	fe842783          	lw	a5,-24(s0)
     68e:	30079073          	csrw	mstatus,a5
    // 可加 sc_printf 打印
}
     692:	0001                	nop
     694:	5432                	lw	s0,44(sp)
     696:	6145                	addi	sp,sp,48
     698:	8082                	ret

0000069a <test_float_ops>:

void test_float_ops() {
     69a:	7171                	addi	sp,sp,-176
     69c:	d722                	sw	s0,172(sp)
     69e:	1900                	addi	s0,sp,176
    uint32_t a = 0x40000000; // 2.0f (IEEE754)
     6a0:	400007b7          	lui	a5,0x40000
     6a4:	fef42623          	sw	a5,-20(s0)
    uint32_t b = 0x3f800000; // 1.0f (IEEE754)
     6a8:	3f8007b7          	lui	a5,0x3f800
     6ac:	fef42423          	sw	a5,-24(s0)
    uint32_t res_add, res_sub, res_mul, res_div, res_sqrt, res_feq, res_flt, res_fle;

    // fadd.s: 2.0 + 1.0 = 3.0 (0x40400000)
    asm volatile (
     6b0:	fec42783          	lw	a5,-20(s0)
     6b4:	fe842703          	lw	a4,-24(s0)
     6b8:	82be                	mv	t0,a5
     6ba:	833a                	mv	t1,a4
     6bc:	f00280d3          	fmv.w.x	ft1,t0
     6c0:	f0030153          	fmv.w.x	ft2,t1
     6c4:	0020f1d3          	fadd.s	ft3,ft1,ft2
     6c8:	e00183d3          	fmv.x.w	t2,ft3
     6cc:	879e                	mv	a5,t2
     6ce:	fef42223          	sw	a5,-28(s0)
        : [a] "r" (a), [b] "r" (b)
        : "t0", "t1", "t2", "f1", "f2", "f3"
    );

    // fsub.s: 2.0 - 1.0 = 1.0 (0x3f800000)
    asm volatile (
     6d2:	fec42783          	lw	a5,-20(s0)
     6d6:	fe842703          	lw	a4,-24(s0)
     6da:	82be                	mv	t0,a5
     6dc:	833a                	mv	t1,a4
     6de:	f00280d3          	fmv.w.x	ft1,t0
     6e2:	f0030153          	fmv.w.x	ft2,t1
     6e6:	0820f1d3          	fsub.s	ft3,ft1,ft2
     6ea:	e00183d3          	fmv.x.w	t2,ft3
     6ee:	879e                	mv	a5,t2
     6f0:	fef42023          	sw	a5,-32(s0)
        : [a] "r" (a), [b] "r" (b)
        : "t0", "t1", "t2", "f1", "f2", "f3"
    );

    // fmul.s: 2.0 * 1.0 = 2.0 (0x40000000)
    asm volatile (
     6f4:	fec42783          	lw	a5,-20(s0)
     6f8:	fe842703          	lw	a4,-24(s0)
     6fc:	82be                	mv	t0,a5
     6fe:	833a                	mv	t1,a4
     700:	f00280d3          	fmv.w.x	ft1,t0
     704:	f0030153          	fmv.w.x	ft2,t1
     708:	1020f1d3          	fmul.s	ft3,ft1,ft2
     70c:	e00183d3          	fmv.x.w	t2,ft3
     710:	879e                	mv	a5,t2
     712:	fcf42e23          	sw	a5,-36(s0)
        : [a] "r" (a), [b] "r" (b)
        : "t0", "t1", "t2", "f1", "f2", "f3"
    );

    // fdiv.s: 2.0 / 1.0 = 2.0 (0x40000000)
    asm volatile (
     716:	fec42783          	lw	a5,-20(s0)
     71a:	fe842703          	lw	a4,-24(s0)
     71e:	82be                	mv	t0,a5
     720:	833a                	mv	t1,a4
     722:	f00280d3          	fmv.w.x	ft1,t0
     726:	f0030153          	fmv.w.x	ft2,t1
     72a:	1820f1d3          	fdiv.s	ft3,ft1,ft2
     72e:	e00183d3          	fmv.x.w	t2,ft3
     732:	879e                	mv	a5,t2
     734:	fcf42c23          	sw	a5,-40(s0)
        : [a] "r" (a), [b] "r" (b)
        : "t0", "t1", "t2", "f1", "f2", "f3"
    );

    // fsqrt.s: sqrt(2.0) = 1.4142135... (0x3fb504f3)
    asm volatile (
     738:	fec42783          	lw	a5,-20(s0)
     73c:	82be                	mv	t0,a5
     73e:	f00280d3          	fmv.w.x	ft1,t0
     742:	5800f1d3          	fsqrt.s	ft3,ft1
     746:	e00183d3          	fmv.x.w	t2,ft3
     74a:	879e                	mv	a5,t2
     74c:	fcf42a23          	sw	a5,-44(s0)
        : [a] "r" (a)
        : "t0", "t2", "f1", "f3"
    );

    // FEQ.S: 2.0 == 1.0 ? 结果应为0
    asm volatile (
     750:	fec42783          	lw	a5,-20(s0)
     754:	fe842703          	lw	a4,-24(s0)
     758:	82be                	mv	t0,a5
     75a:	833a                	mv	t1,a4
     75c:	f00280d3          	fmv.w.x	ft1,t0
     760:	f0030153          	fmv.w.x	ft2,t1
     764:	a020ae53          	feq.s	t3,ft1,ft2
     768:	87f2                	mv	a5,t3
     76a:	fcf42823          	sw	a5,-48(s0)
        : [a] "r" (a), [b] "r" (b)
        : "t0", "t1", "t3", "f1", "f2"
    );

    // FLT.S: 2.0 < 1.0 ? 结果应为0
    asm volatile (
     76e:	fec42783          	lw	a5,-20(s0)
     772:	fe842703          	lw	a4,-24(s0)
     776:	82be                	mv	t0,a5
     778:	833a                	mv	t1,a4
     77a:	f00280d3          	fmv.w.x	ft1,t0
     77e:	f0030153          	fmv.w.x	ft2,t1
     782:	a0209e53          	flt.s	t3,ft1,ft2
     786:	87f2                	mv	a5,t3
     788:	fcf42623          	sw	a5,-52(s0)
        : [a] "r" (a), [b] "r" (b)
        : "t0", "t1", "t3", "f1", "f2"
    );

    // FLE.S: 2.0 <= 1.0 ? 结果应为0
    asm volatile (
     78c:	fec42783          	lw	a5,-20(s0)
     790:	fe842703          	lw	a4,-24(s0)
     794:	82be                	mv	t0,a5
     796:	833a                	mv	t1,a4
     798:	f00280d3          	fmv.w.x	ft1,t0
     79c:	f0030153          	fmv.w.x	ft2,t1
     7a0:	a0208e53          	fle.s	t3,ft1,ft2
     7a4:	87f2                	mv	a5,t3
     7a6:	fcf42423          	sw	a5,-56(s0)
        : [a] "r" (a), [b] "r" (b)
        : "t0", "t1", "t3", "f1", "f2"
    );

    // FCVT.W.S: float → int32_t
    uint32_t float_ival = 0xc2f60000; // -123.0f in IEEE754
     7aa:	c2f607b7          	lui	a5,0xc2f60
     7ae:	fcf42223          	sw	a5,-60(s0)
    int32_t res_fcvt_w_s;
    asm volatile (
     7b2:	fc442783          	lw	a5,-60(s0)
     7b6:	82be                	mv	t0,a5
     7b8:	f00280d3          	fmv.w.x	ft1,t0
     7bc:	c000f353          	fcvt.w.s	t1,ft1
     7c0:	879a                	mv	a5,t1
     7c2:	fcf42023          	sw	a5,-64(s0)
        : "t0", "t1", "f1"
    );

    // FCVT.WU.S: float → uint32_t
    // uint32_t float_uval = 0x42f60000; // 123.0f in IEEE754
    uint32_t float_uval = 0xc2f60000; // -123.0f in IEEE754
     7c6:	c2f607b7          	lui	a5,0xc2f60
     7ca:	faf42e23          	sw	a5,-68(s0)
    uint32_t res_fcvt_wu_s;
    asm volatile (
     7ce:	fbc42783          	lw	a5,-68(s0)
     7d2:	82be                	mv	t0,a5
     7d4:	f00280d3          	fmv.w.x	ft1,t0
     7d8:	c010f353          	fcvt.wu.s	t1,ft1
     7dc:	879a                	mv	a5,t1
     7de:	faf42c23          	sw	a5,-72(s0)
        : [res_fcvt_wu_s] "=r" (res_fcvt_wu_s)
        : [float_uval] "r" (float_uval)
        : "t0", "t1", "f1"
    );

    float af = 1.5e9f;
     7e2:	000807b7          	lui	a5,0x80
     7e6:	0207a787          	flw	fa5,32(a5) # 80020 <_srodata+0x20>
     7ea:	f6f42027          	fsw	fa5,-160(s0)
    float bf = 5.0f;
     7ee:	000807b7          	lui	a5,0x80
     7f2:	0247a787          	flw	fa5,36(a5) # 80024 <_srodata+0x24>
     7f6:	f4f42e27          	fsw	fa5,-164(s0)
    uint32_t res_ovf;

    asm volatile (
     7fa:	f6042087          	flw	ft1,-160(s0)
     7fe:	f5c42107          	flw	ft2,-164(s0)
     802:	1020f1d3          	fmul.s	ft3,ft1,ft2
     806:	c011f353          	fcvt.wu.s	t1,ft3
     80a:	879a                	mv	a5,t1
     80c:	faf42a23          	sw	a5,-76(s0)
        : [a_addr] "m" (af), [b_addr] "m" (bf)
        : "t1", "f1", "f2", "f3"
    );
    
    // FCVT.S.W: int32_t → float
    int32_t val_w = -123;
     810:	f8500793          	li	a5,-123
     814:	faf42823          	sw	a5,-80(s0)
    uint32_t res_fcvt_s_w;
    asm volatile (
     818:	fb042783          	lw	a5,-80(s0)
     81c:	82be                	mv	t0,a5
     81e:	d002f0d3          	fcvt.s.w	ft1,t0
     822:	e0008353          	fmv.x.w	t1,ft1
     826:	879a                	mv	a5,t1
     828:	faf42623          	sw	a5,-84(s0)
        : [val_w] "r" (val_w)
        : "t0", "t1", "f1"
    );

    // FCVT.S.WU: uint32_t → float
    uint32_t val_wu = 123u;
     82c:	07b00793          	li	a5,123
     830:	faf42423          	sw	a5,-88(s0)
    uint32_t res_fcvt_s_wu;
    asm volatile (
     834:	fa842783          	lw	a5,-88(s0)
     838:	82be                	mv	t0,a5
     83a:	d012f0d3          	fcvt.s.wu	ft1,t0
     83e:	e0008353          	fmv.x.w	t1,ft1
     842:	879a                	mv	a5,t1
     844:	faf42223          	sw	a5,-92(s0)
        : [val_wu] "r" (val_wu)
        : "t0", "t1", "f1"
    );
    uint32_t res_sgnj, res_sgnjn, res_sgnjx;
    // FSGNJ.S: 结果应等于a本身（2.0f），因为b为正数
    asm volatile (
     848:	fec42783          	lw	a5,-20(s0)
     84c:	fe842703          	lw	a4,-24(s0)
     850:	82be                	mv	t0,a5
     852:	833a                	mv	t1,a4
     854:	f00280d3          	fmv.w.x	ft1,t0
     858:	f0030153          	fmv.w.x	ft2,t1
     85c:	202081d3          	fsgnj.s	ft3,ft1,ft2
     860:	e00183d3          	fmv.x.w	t2,ft3
     864:	879e                	mv	a5,t2
     866:	faf42023          	sw	a5,-96(s0)
        : [a] "r" (a), [b] "r" (b)
        : "t0", "t1", "t2", "f1", "f2", "f3"
    );

    // FSGNJN.S: 结果应等于a取负（-2.0f, 0xC0000000），因为b为正
    asm volatile (
     86a:	fec42783          	lw	a5,-20(s0)
     86e:	fe842703          	lw	a4,-24(s0)
     872:	82be                	mv	t0,a5
     874:	833a                	mv	t1,a4
     876:	f00280d3          	fmv.w.x	ft1,t0
     87a:	f0030153          	fmv.w.x	ft2,t1
     87e:	202091d3          	fsgnjn.s	ft3,ft1,ft2
     882:	e00183d3          	fmv.x.w	t2,ft3
     886:	879e                	mv	a5,t2
     888:	f8f42e23          	sw	a5,-100(s0)
        : [a] "r" (a), [b] "r" (b)
        : "t0", "t1", "t2", "f1", "f2", "f3"
    );

    // FSGNJX.S: 结果等于a本身（2.0f），因同号符号异或为0
    asm volatile (
     88c:	fec42783          	lw	a5,-20(s0)
     890:	fe842703          	lw	a4,-24(s0)
     894:	82be                	mv	t0,a5
     896:	833a                	mv	t1,a4
     898:	f00280d3          	fmv.w.x	ft1,t0
     89c:	f0030153          	fmv.w.x	ft2,t1
     8a0:	2020a1d3          	fsgnjx.s	ft3,ft1,ft2
     8a4:	e00183d3          	fmv.x.w	t2,ft3
     8a8:	879e                	mv	a5,t2
     8aa:	f8f42c23          	sw	a5,-104(s0)
    );

    uint32_t res_fmin, res_fmax;

    // FMIN.S: min(2.0f, 1.0f) = 1.0f (0x3f800000)
    asm volatile (
     8ae:	fec42783          	lw	a5,-20(s0)
     8b2:	fe842703          	lw	a4,-24(s0)
     8b6:	82be                	mv	t0,a5
     8b8:	833a                	mv	t1,a4
     8ba:	f00280d3          	fmv.w.x	ft1,t0
     8be:	f0030153          	fmv.w.x	ft2,t1
     8c2:	282081d3          	fmin.s	ft3,ft1,ft2
     8c6:	e00183d3          	fmv.x.w	t2,ft3
     8ca:	879e                	mv	a5,t2
     8cc:	f8f42a23          	sw	a5,-108(s0)
        : [a] "r" (a), [b] "r" (b)
        : "t0", "t1", "t2", "f1", "f2", "f3"
    );

    // FMAX.S: max(2.0f, 1.0f) = 2.0f (0x40000000)
    asm volatile (
     8d0:	fec42783          	lw	a5,-20(s0)
     8d4:	fe842703          	lw	a4,-24(s0)
     8d8:	82be                	mv	t0,a5
     8da:	833a                	mv	t1,a4
     8dc:	f00280d3          	fmv.w.x	ft1,t0
     8e0:	f0030153          	fmv.w.x	ft2,t1
     8e4:	282091d3          	fmax.s	ft3,ft1,ft2
     8e8:	e00183d3          	fmv.x.w	t2,ft3
     8ec:	879e                	mv	a5,t2
     8ee:	f8f42823          	sw	a5,-112(s0)
        : [res_fmax] "=r" (res_fmax)
        : [a] "r" (a), [b] "r" (b)
        : "t0", "t1", "t2", "f1", "f2", "f3"
    );

    uint32_t nan_bits = 0x7fc00001; // canonical quiet NaN
     8f2:	7fc007b7          	lui	a5,0x7fc00
     8f6:	0785                	addi	a5,a5,1 # 7fc00001 <__top_dmem+0x7fb70001>
     8f8:	f8f42623          	sw	a5,-116(s0)
    uint32_t res_fclass_nan;
    asm volatile (
     8fc:	f8c42783          	lw	a5,-116(s0)
     900:	82be                	mv	t0,a5
     902:	f00280d3          	fmv.w.x	ft1,t0
     906:	e0009353          	fclass.s	t1,ft1
     90a:	879a                	mv	a5,t1
     90c:	f8f42423          	sw	a5,-120(s0)
        "mv %[res_fclass_nan], t1\n"
        : [res_fclass_nan] "=r" (res_fclass_nan)
        : [nan_bits] "r" (nan_bits)
        : "t0", "t1", "f1"
    );
    uint32_t inf_bits = 0x7f800000;
     910:	7f8007b7          	lui	a5,0x7f800
     914:	f8f42223          	sw	a5,-124(s0)
    uint32_t res_fclass_inf;
    asm volatile (
     918:	f8442783          	lw	a5,-124(s0)
     91c:	82be                	mv	t0,a5
     91e:	f00280d3          	fmv.w.x	ft1,t0
     922:	e0009353          	fclass.s	t1,ft1
     926:	879a                	mv	a5,t1
     928:	f8f42023          	sw	a5,-128(s0)
        : [res_fclass_inf] "=r" (res_fclass_inf)
        : [inf_bits] "r" (inf_bits)
        : "t0", "t1", "f1"
    );

    uint32_t ma = 0x40000000;     // 2.0f
     92c:	400007b7          	lui	a5,0x40000
     930:	f6f42e23          	sw	a5,-132(s0)
    uint32_t mb = 0x3f800000;     // 1.0f
     934:	3f8007b7          	lui	a5,0x3f800
     938:	f6f42c23          	sw	a5,-136(s0)
    uint32_t mc = 0xc0800000;     // -4.0f
     93c:	c08007b7          	lui	a5,0xc0800
     940:	f6f42a23          	sw	a5,-140(s0)
    uint32_t res_fmadd, res_fmsub, res_fnmadd, res_fnmsub;

    // FMADD.S: (2.0 * 1.0) + (-4.0) = -2.0 (0xc0000000)
    asm volatile (
     944:	f7c42783          	lw	a5,-132(s0)
     948:	f7842703          	lw	a4,-136(s0)
     94c:	f7442683          	lw	a3,-140(s0)
     950:	82be                	mv	t0,a5
     952:	833a                	mv	t1,a4
     954:	83b6                	mv	t2,a3
     956:	f00280d3          	fmv.w.x	ft1,t0
     95a:	f0030153          	fmv.w.x	ft2,t1
     95e:	f00381d3          	fmv.w.x	ft3,t2
     962:	1820f243          	fmadd.s	ft4,ft1,ft2,ft3
     966:	e0020e53          	fmv.x.w	t3,ft4
     96a:	87f2                	mv	a5,t3
     96c:	f6f42823          	sw	a5,-144(s0)
        : [ma] "r" (ma), [mb] "r" (mb), [mc] "r" (mc)
        : "t0", "t1", "t2", "t3", "f1", "f2", "f3", "f4"
    );

    // FMSUB.S: (2.0 * 1.0) - (-4.0) = 6.0 (0x40c00000)
    asm volatile (
     970:	f7c42783          	lw	a5,-132(s0)
     974:	f7842703          	lw	a4,-136(s0)
     978:	f7442683          	lw	a3,-140(s0)
     97c:	82be                	mv	t0,a5
     97e:	833a                	mv	t1,a4
     980:	83b6                	mv	t2,a3
     982:	f00280d3          	fmv.w.x	ft1,t0
     986:	f0030153          	fmv.w.x	ft2,t1
     98a:	f00381d3          	fmv.w.x	ft3,t2
     98e:	1820f247          	fmsub.s	ft4,ft1,ft2,ft3
     992:	e0020e53          	fmv.x.w	t3,ft4
     996:	87f2                	mv	a5,t3
     998:	f6f42623          	sw	a5,-148(s0)
        : [ma] "r" (ma), [mb] "r" (mb), [mc] "r" (mc)
        : "t0", "t1", "t2", "t3", "f1", "f2", "f3", "f4"
    );

    // FNMADD.S: -(2.0 * 1.0 + (-4.0)) = 2.0 (0x40000000)
    asm volatile (
     99c:	f7c42783          	lw	a5,-132(s0)
     9a0:	f7842703          	lw	a4,-136(s0)
     9a4:	f7442683          	lw	a3,-140(s0)
     9a8:	82be                	mv	t0,a5
     9aa:	833a                	mv	t1,a4
     9ac:	83b6                	mv	t2,a3
     9ae:	f00280d3          	fmv.w.x	ft1,t0
     9b2:	f0030153          	fmv.w.x	ft2,t1
     9b6:	f00381d3          	fmv.w.x	ft3,t2
     9ba:	1820f24f          	fnmadd.s	ft4,ft1,ft2,ft3
     9be:	e0020e53          	fmv.x.w	t3,ft4
     9c2:	87f2                	mv	a5,t3
     9c4:	f6f42423          	sw	a5,-152(s0)
        : [ma] "r" (ma), [mb] "r" (mb), [mc] "r" (mc)
        : "t0", "t1", "t2", "t3", "f1", "f2", "f3", "f4"
    );

    // FNMSUB.S: -(2.0 * 1.0 - (-4.0)) = -6.0 (0xc0c00000)
    asm volatile (
     9c8:	f7c42783          	lw	a5,-132(s0)
     9cc:	f7842703          	lw	a4,-136(s0)
     9d0:	f7442683          	lw	a3,-140(s0)
     9d4:	82be                	mv	t0,a5
     9d6:	833a                	mv	t1,a4
     9d8:	83b6                	mv	t2,a3
     9da:	f00280d3          	fmv.w.x	ft1,t0
     9de:	f0030153          	fmv.w.x	ft2,t1
     9e2:	f00381d3          	fmv.w.x	ft3,t2
     9e6:	1820f24b          	fnmsub.s	ft4,ft1,ft2,ft3
     9ea:	e0020e53          	fmv.x.w	t3,ft4
     9ee:	87f2                	mv	a5,t3
     9f0:	f6f42223          	sw	a5,-156(s0)
    // sc_printf("fadd.s result(bits) = 0x%08x, result(float) = %f\n", res_add, u_add.f);
    // sc_printf("fsub.s result(bits) = 0x%08x, result(float) = %f\n", res_sub, u_sub.f);
    // sc_printf("fmul.s result(bits) = 0x%08x, result(float) = %f\n", res_mul, u_mul.f);
    // sc_printf("fdiv.s result(bits) = 0x%08x, result(float) = %f\n", res_div, u_div.f);
    // sc_printf("fsqrt.s result(bits) = 0x%08x, result(float) = %f\n", res_sqrt, u_sqrt.f);
}
     9f4:	0001                	nop
     9f6:	543a                	lw	s0,172(sp)
     9f8:	614d                	addi	sp,sp,176
     9fa:	8082                	ret

000009fc <test_mtime_interrupt>:


void test_mtime_interrupt() {
     9fc:	1141                	addi	sp,sp,-16
     9fe:	c606                	sw	ra,12(sp)
     a00:	c422                	sw	s0,8(sp)
     a02:	0800                	addi	s0,sp,16
    // mtime 测试
    interrupt_init(); // 初始化中断
     a04:	2af000ef          	jal	14b2 <interrupt_init>
    enable_timer_interrupt(); // 使能定时器中断
     a08:	2c1000ef          	jal	14c8 <enable_timer_interrupt>
    mtimecmp_write(1000); // 设置 mtimecmp 为 1000
     a0c:	3e800513          	li	a0,1000
     a10:	273000ef          	jal	1482 <mtimecmp_write>
    mtimectrl_write(1,2); // 使能 mtime , 设置分频为4
     a14:	4589                	li	a1,2
     a16:	4505                	li	a0,1
     a18:	1cd000ef          	jal	13e4 <mtimectrl_write>
     a1c:	0001                	nop
     a1e:	40b2                	lw	ra,12(sp)
     a20:	4422                	lw	s0,8(sp)
     a22:	0141                	addi	sp,sp,16
     a24:	8082                	ret

00000a26 <sc_puts>:

#define SC_SIM_OUTPORT (0xf0000000)
#define CHAR_BIT (8)
#define BUF_SIZE 256
static void
sc_puts(long str, long strlen) {
     a26:	7179                	addi	sp,sp,-48
     a28:	d622                	sw	s0,44(sp)
     a2a:	1800                	addi	s0,sp,48
     a2c:	fca42e23          	sw	a0,-36(s0)
     a30:	fcb42c23          	sw	a1,-40(s0)
	volatile char *out_ptr = (volatile char*)SC_SIM_OUTPORT;
     a34:	f00007b7          	lui	a5,0xf0000
     a38:	fef42223          	sw	a5,-28(s0)
	const char *in_ptr = (const char*)str;
     a3c:	fdc42783          	lw	a5,-36(s0)
     a40:	fef42623          	sw	a5,-20(s0)
	for (long len = strlen; len > 0; --len)
     a44:	fd842783          	lw	a5,-40(s0)
     a48:	fef42423          	sw	a5,-24(s0)
     a4c:	a015                	j	a70 <sc_puts+0x4a>
	  *out_ptr = *in_ptr++;
     a4e:	fec42783          	lw	a5,-20(s0)
     a52:	00178713          	addi	a4,a5,1 # f0000001 <__top_dmem+0xeff70001>
     a56:	fee42623          	sw	a4,-20(s0)
     a5a:	0007c703          	lbu	a4,0(a5)
     a5e:	fe442783          	lw	a5,-28(s0)
     a62:	00e78023          	sb	a4,0(a5)
	for (long len = strlen; len > 0; --len)
     a66:	fe842783          	lw	a5,-24(s0)
     a6a:	17fd                	addi	a5,a5,-1
     a6c:	fef42423          	sw	a5,-24(s0)
     a70:	fe842783          	lw	a5,-24(s0)
     a74:	fcf04de3          	bgtz	a5,a4e <sc_puts+0x28>
}
     a78:	0001                	nop
     a7a:	0001                	nop
     a7c:	5432                	lw	s0,44(sp)
     a7e:	6145                	addi	sp,sp,48
     a80:	8082                	ret

00000a82 <putchar>:

#undef putchar
int
putchar(int ch) {
     a82:	1101                	addi	sp,sp,-32
     a84:	ce06                	sw	ra,28(sp)
     a86:	cc22                	sw	s0,24(sp)
     a88:	1000                	addi	s0,sp,32
     a8a:	fea42623          	sw	a0,-20(s0)
	static char buf[BUF_SIZE] __attribute__((aligned(64)));
    static int buflen = 0;

    buf[buflen++] = ch;
     a8e:	000807b7          	lui	a5,0x80
     a92:	3407a783          	lw	a5,832(a5) # 80340 <buflen.1>
     a96:	00178693          	addi	a3,a5,1
     a9a:	00080737          	lui	a4,0x80
     a9e:	34d72023          	sw	a3,832(a4) # 80340 <buflen.1>
     aa2:	fec42703          	lw	a4,-20(s0)
     aa6:	0ff77713          	zext.b	a4,a4
     aaa:	000806b7          	lui	a3,0x80
     aae:	38068693          	addi	a3,a3,896 # 80380 <buf.0>
     ab2:	97b6                	add	a5,a5,a3
     ab4:	00e78023          	sb	a4,0(a5)

	if ( ch == '\n' || buflen == sizeof(buf) ) {
     ab8:	fec42703          	lw	a4,-20(s0)
     abc:	47a9                	li	a5,10
     abe:	00f70a63          	beq	a4,a5,ad2 <putchar+0x50>
     ac2:	000807b7          	lui	a5,0x80
     ac6:	3407a703          	lw	a4,832(a5) # 80340 <buflen.1>
     aca:	10000793          	li	a5,256
     ace:	02f71163          	bne	a4,a5,af0 <putchar+0x6e>
        sc_puts((long)buf, buflen);
     ad2:	000807b7          	lui	a5,0x80
     ad6:	38078713          	addi	a4,a5,896 # 80380 <buf.0>
     ada:	000807b7          	lui	a5,0x80
     ade:	3407a783          	lw	a5,832(a5) # 80340 <buflen.1>
     ae2:	85be                	mv	a1,a5
     ae4:	853a                	mv	a0,a4
     ae6:	3781                	jal	a26 <sc_puts>
        buflen = 0;
     ae8:	000807b7          	lui	a5,0x80
     aec:	3407a023          	sw	zero,832(a5) # 80340 <buflen.1>
    }

    return 0;
     af0:	4781                	li	a5,0
}
     af2:	853e                	mv	a0,a5
     af4:	40f2                	lw	ra,28(sp)
     af6:	4462                	lw	s0,24(sp)
     af8:	6105                	addi	sp,sp,32
     afa:	8082                	ret

00000afc <printf_putch>:

static void
printf_putch(int ch, void** data)
{
     afc:	1101                	addi	sp,sp,-32
     afe:	ce06                	sw	ra,28(sp)
     b00:	cc22                	sw	s0,24(sp)
     b02:	1000                	addi	s0,sp,32
     b04:	fea42623          	sw	a0,-20(s0)
     b08:	feb42423          	sw	a1,-24(s0)
    putchar(ch);
     b0c:	fec42503          	lw	a0,-20(s0)
     b10:	3f8d                	jal	a82 <putchar>
}
     b12:	0001                	nop
     b14:	40f2                	lw	ra,28(sp)
     b16:	4462                	lw	s0,24(sp)
     b18:	6105                	addi	sp,sp,32
     b1a:	8082                	ret

00000b1c <print>:

static void
print(const char *str)
{
     b1c:	1101                	addi	sp,sp,-32
     b1e:	ce06                	sw	ra,28(sp)
     b20:	cc22                	sw	s0,24(sp)
     b22:	ca26                	sw	s1,20(sp)
     b24:	1000                	addi	s0,sp,32
     b26:	fea42623          	sw	a0,-20(s0)
  sc_puts((long)str, strlen(str));
     b2a:	fec42483          	lw	s1,-20(s0)
     b2e:	fec42503          	lw	a0,-20(s0)
     b32:	24c030ef          	jal	3d7e <strlen>
     b36:	87aa                	mv	a5,a0
     b38:	85be                	mv	a1,a5
     b3a:	8526                	mv	a0,s1
     b3c:	35ed                	jal	a26 <sc_puts>
}
     b3e:	0001                	nop
     b40:	40f2                	lw	ra,28(sp)
     b42:	4462                	lw	s0,24(sp)
     b44:	44d2                	lw	s1,20(sp)
     b46:	6105                	addi	sp,sp,32
     b48:	8082                	ret

00000b4a <getint>:


static long long
getint(va_list *ap, int lflag)
{
     b4a:	1101                	addi	sp,sp,-32
     b4c:	ce22                	sw	s0,28(sp)
     b4e:	1000                	addi	s0,sp,32
     b50:	fea42623          	sw	a0,-20(s0)
     b54:	feb42423          	sw	a1,-24(s0)
    if ( lflag >= 2 )
     b58:	fe842603          	lw	a2,-24(s0)
     b5c:	4685                	li	a3,1
     b5e:	00c6df63          	bge	a3,a2,b7c <getint+0x32>
        return va_arg(*ap, long long);
     b62:	fec42783          	lw	a5,-20(s0)
     b66:	439c                	lw	a5,0(a5)
     b68:	079d                	addi	a5,a5,7
     b6a:	9be1                	andi	a5,a5,-8
     b6c:	00878693          	addi	a3,a5,8
     b70:	fec42703          	lw	a4,-20(s0)
     b74:	c314                	sw	a3,0(a4)
     b76:	4398                	lw	a4,0(a5)
     b78:	43dc                	lw	a5,4(a5)
     b7a:	a82d                	j	bb4 <getint+0x6a>
    else if ( lflag )
     b7c:	fe842683          	lw	a3,-24(s0)
     b80:	ce91                	beqz	a3,b9c <getint+0x52>
        return va_arg(*ap, long);
     b82:	fec42683          	lw	a3,-20(s0)
     b86:	4294                	lw	a3,0(a3)
     b88:	00468593          	addi	a1,a3,4
     b8c:	fec42603          	lw	a2,-20(s0)
     b90:	c20c                	sw	a1,0(a2)
     b92:	4294                	lw	a3,0(a3)
     b94:	8736                	mv	a4,a3
     b96:	86fd                	srai	a3,a3,0x1f
     b98:	87b6                	mv	a5,a3
     b9a:	a829                	j	bb4 <getint+0x6a>
    else
        return va_arg(*ap, int);
     b9c:	fec42683          	lw	a3,-20(s0)
     ba0:	4294                	lw	a3,0(a3)
     ba2:	00468593          	addi	a1,a3,4
     ba6:	fec42603          	lw	a2,-20(s0)
     baa:	c20c                	sw	a1,0(a2)
     bac:	4294                	lw	a3,0(a3)
     bae:	8736                	mv	a4,a3
     bb0:	86fd                	srai	a3,a3,0x1f
     bb2:	87b6                	mv	a5,a3
}
     bb4:	853a                	mv	a0,a4
     bb6:	85be                	mv	a1,a5
     bb8:	4472                	lw	s0,28(sp)
     bba:	6105                	addi	sp,sp,32
     bbc:	8082                	ret

00000bbe <getuint>:


static unsigned long long
getuint(va_list *ap, int lflag)
{
     bbe:	1101                	addi	sp,sp,-32
     bc0:	ce22                	sw	s0,28(sp)
     bc2:	1000                	addi	s0,sp,32
     bc4:	fea42623          	sw	a0,-20(s0)
     bc8:	feb42423          	sw	a1,-24(s0)
    if ( lflag >= 2 )
     bcc:	fe842603          	lw	a2,-24(s0)
     bd0:	4685                	li	a3,1
     bd2:	00c6df63          	bge	a3,a2,bf0 <getuint+0x32>
        return va_arg(*ap, unsigned long long);
     bd6:	fec42783          	lw	a5,-20(s0)
     bda:	439c                	lw	a5,0(a5)
     bdc:	079d                	addi	a5,a5,7
     bde:	9be1                	andi	a5,a5,-8
     be0:	00878693          	addi	a3,a5,8
     be4:	fec42703          	lw	a4,-20(s0)
     be8:	c314                	sw	a3,0(a4)
     bea:	4398                	lw	a4,0(a5)
     bec:	43dc                	lw	a5,4(a5)
     bee:	a81d                	j	c24 <getuint+0x66>
    else if ( lflag )
     bf0:	fe842683          	lw	a3,-24(s0)
     bf4:	ce89                	beqz	a3,c0e <getuint+0x50>
        return va_arg(*ap, unsigned long);
     bf6:	fec42683          	lw	a3,-20(s0)
     bfa:	4294                	lw	a3,0(a3)
     bfc:	00468593          	addi	a1,a3,4
     c00:	fec42603          	lw	a2,-20(s0)
     c04:	c20c                	sw	a1,0(a2)
     c06:	4294                	lw	a3,0(a3)
     c08:	8736                	mv	a4,a3
     c0a:	4781                	li	a5,0
     c0c:	a821                	j	c24 <getuint+0x66>
    else
        return va_arg(*ap, unsigned int);
     c0e:	fec42683          	lw	a3,-20(s0)
     c12:	4294                	lw	a3,0(a3)
     c14:	00468593          	addi	a1,a3,4
     c18:	fec42603          	lw	a2,-20(s0)
     c1c:	c20c                	sw	a1,0(a2)
     c1e:	4294                	lw	a3,0(a3)
     c20:	8736                	mv	a4,a3
     c22:	4781                	li	a5,0
}
     c24:	853a                	mv	a0,a4
     c26:	85be                	mv	a1,a5
     c28:	4472                	lw	s0,28(sp)
     c2a:	6105                	addi	sp,sp,32
     c2c:	8082                	ret

00000c2e <printnum>:
unsigned long long num,
unsigned base,
int width,
int padc,
int hex_A)
{
     c2e:	714d                	addi	sp,sp,-336
     c30:	14112623          	sw	ra,332(sp)
     c34:	14812423          	sw	s0,328(sp)
     c38:	15212223          	sw	s2,324(sp)
     c3c:	15312023          	sw	s3,320(sp)
     c40:	13412e23          	sw	s4,316(sp)
     c44:	13512c23          	sw	s5,312(sp)
     c48:	13612a23          	sw	s6,308(sp)
     c4c:	13712823          	sw	s7,304(sp)
     c50:	0a80                	addi	s0,sp,336
     c52:	eca42623          	sw	a0,-308(s0)
     c56:	ecb42423          	sw	a1,-312(s0)
     c5a:	ecc42023          	sw	a2,-320(s0)
     c5e:	ecd42223          	sw	a3,-316(s0)
     c62:	eae42e23          	sw	a4,-324(s0)
     c66:	eaf42c23          	sw	a5,-328(s0)
     c6a:	eb042a23          	sw	a6,-332(s0)
     c6e:	eb142823          	sw	a7,-336(s0)
    unsigned digs[sizeof(num) * CHAR_BIT];
    int pos = 0;
     c72:	fc042e23          	sw	zero,-36(s0)

    for ( ;; ) {
        digs[pos++] = num % base;
     c76:	ebc42783          	lw	a5,-324(s0)
     c7a:	8b3e                	mv	s6,a5
     c7c:	4b81                	li	s7,0
     c7e:	ec042703          	lw	a4,-320(s0)
     c82:	ec442783          	lw	a5,-316(s0)
     c86:	865a                	mv	a2,s6
     c88:	86de                	mv	a3,s7
     c8a:	853a                	mv	a0,a4
     c8c:	85be                	mv	a1,a5
     c8e:	592010ef          	jal	2220 <__umoddi3>
     c92:	872a                	mv	a4,a0
     c94:	87ae                	mv	a5,a1
     c96:	863a                	mv	a2,a4
     c98:	86be                	mv	a3,a5
     c9a:	fdc42783          	lw	a5,-36(s0)
     c9e:	00178713          	addi	a4,a5,1
     ca2:	fce42e23          	sw	a4,-36(s0)
     ca6:	8732                	mv	a4,a2
     ca8:	078a                	slli	a5,a5,0x2
     caa:	1781                	addi	a5,a5,-32
     cac:	97a2                	add	a5,a5,s0
     cae:	eee7ae23          	sw	a4,-260(a5)
        if ( num < base )
     cb2:	ebc42783          	lw	a5,-324(s0)
     cb6:	893e                	mv	s2,a5
     cb8:	4981                	li	s3,0
     cba:	ec442783          	lw	a5,-316(s0)
     cbe:	874e                	mv	a4,s3
     cc0:	02e7ef63          	bltu	a5,a4,cfe <printnum+0xd0>
     cc4:	ec442783          	lw	a5,-316(s0)
     cc8:	874e                	mv	a4,s3
     cca:	00e79763          	bne	a5,a4,cd8 <printnum+0xaa>
     cce:	ec042783          	lw	a5,-320(s0)
     cd2:	874a                	mv	a4,s2
     cd4:	02e7e563          	bltu	a5,a4,cfe <printnum+0xd0>
            break;
        num /= base;
     cd8:	ebc42783          	lw	a5,-324(s0)
     cdc:	8a3e                	mv	s4,a5
     cde:	4a81                	li	s5,0
     ce0:	8652                	mv	a2,s4
     ce2:	86d6                	mv	a3,s5
     ce4:	ec042503          	lw	a0,-320(s0)
     ce8:	ec442583          	lw	a1,-316(s0)
     cec:	18c010ef          	jal	1e78 <__udivdi3>
     cf0:	872a                	mv	a4,a0
     cf2:	87ae                	mv	a5,a1
     cf4:	ece42023          	sw	a4,-320(s0)
     cf8:	ecf42223          	sw	a5,-316(s0)
        digs[pos++] = num % base;
     cfc:	bfad                	j	c76 <printnum+0x48>
            break;
     cfe:	0001                	nop
    }

    while ( width-- > pos )
     d00:	a801                	j	d10 <printnum+0xe2>
        putch(padc, putdat);
     d02:	ecc42783          	lw	a5,-308(s0)
     d06:	ec842583          	lw	a1,-312(s0)
     d0a:	eb442503          	lw	a0,-332(s0)
     d0e:	9782                	jalr	a5
    while ( width-- > pos )
     d10:	eb842783          	lw	a5,-328(s0)
     d14:	fff78713          	addi	a4,a5,-1
     d18:	eae42c23          	sw	a4,-328(s0)
     d1c:	fdc42703          	lw	a4,-36(s0)
     d20:	fef741e3          	blt	a4,a5,d02 <printnum+0xd4>

    while ( pos-- > 0 )
     d24:	a081                	j	d64 <printnum+0x136>
        putch(digs[pos] + (digs[pos] >= 10 ? hex_A - 10 : '0'), putdat);
     d26:	fdc42783          	lw	a5,-36(s0)
     d2a:	078a                	slli	a5,a5,0x2
     d2c:	1781                	addi	a5,a5,-32
     d2e:	97a2                	add	a5,a5,s0
     d30:	efc7a703          	lw	a4,-260(a5)
     d34:	fdc42783          	lw	a5,-36(s0)
     d38:	078a                	slli	a5,a5,0x2
     d3a:	1781                	addi	a5,a5,-32
     d3c:	97a2                	add	a5,a5,s0
     d3e:	efc7a683          	lw	a3,-260(a5)
     d42:	47a5                	li	a5,9
     d44:	00d7f663          	bgeu	a5,a3,d50 <printnum+0x122>
     d48:	eb042783          	lw	a5,-336(s0)
     d4c:	17d9                	addi	a5,a5,-10
     d4e:	a019                	j	d54 <printnum+0x126>
     d50:	03000793          	li	a5,48
     d54:	97ba                	add	a5,a5,a4
     d56:	873e                	mv	a4,a5
     d58:	ecc42783          	lw	a5,-308(s0)
     d5c:	ec842583          	lw	a1,-312(s0)
     d60:	853a                	mv	a0,a4
     d62:	9782                	jalr	a5
    while ( pos-- > 0 )
     d64:	fdc42783          	lw	a5,-36(s0)
     d68:	fff78713          	addi	a4,a5,-1
     d6c:	fce42e23          	sw	a4,-36(s0)
     d70:	faf04be3          	bgtz	a5,d26 <printnum+0xf8>
}
     d74:	0001                	nop
     d76:	0001                	nop
     d78:	14c12083          	lw	ra,332(sp)
     d7c:	14812403          	lw	s0,328(sp)
     d80:	14412903          	lw	s2,324(sp)
     d84:	14012983          	lw	s3,320(sp)
     d88:	13c12a03          	lw	s4,316(sp)
     d8c:	13812a83          	lw	s5,312(sp)
     d90:	13412b03          	lw	s6,308(sp)
     d94:	13012b83          	lw	s7,304(sp)
     d98:	6171                	addi	sp,sp,336
     d9a:	8082                	ret

00000d9c <printdoubleF>:

// 简单浮点打印，最多支持6位小数
static void printdoubleF(void(*putch)(int, void**), void **putdat, double value, int width, int precision, int padc) {
     d9c:	7159                	addi	sp,sp,-112
     d9e:	d686                	sw	ra,108(sp)
     da0:	d4a2                	sw	s0,104(sp)
     da2:	d2ca                	sw	s2,100(sp)
     da4:	d0ce                	sw	s3,96(sp)
     da6:	1880                	addi	s0,sp,112
     da8:	faa42623          	sw	a0,-84(s0)
     dac:	fab42423          	sw	a1,-88(s0)
     db0:	fac42023          	sw	a2,-96(s0)
     db4:	fad42223          	sw	a3,-92(s0)
     db8:	f8e42e23          	sw	a4,-100(s0)
     dbc:	f8f42c23          	sw	a5,-104(s0)
     dc0:	f9042a23          	sw	a6,-108(s0)
    if (precision < 0 || precision > 9) precision = 6; // 默认保留6位
     dc4:	f9842783          	lw	a5,-104(s0)
     dc8:	0007c763          	bltz	a5,dd6 <printdoubleF+0x3a>
     dcc:	f9842703          	lw	a4,-104(s0)
     dd0:	47a5                	li	a5,9
     dd2:	00e7d563          	bge	a5,a4,ddc <printdoubleF+0x40>
     dd6:	4799                	li	a5,6
     dd8:	f8f42c23          	sw	a5,-104(s0)
    if (value < 0) {
     ddc:	4601                	li	a2,0
     dde:	4681                	li	a3,0
     de0:	fa042503          	lw	a0,-96(s0)
     de4:	fa442583          	lw	a1,-92(s0)
     de8:	7ca010ef          	jal	25b2 <__ledf2>
     dec:	87aa                	mv	a5,a0
     dee:	0207d563          	bgez	a5,e18 <printdoubleF+0x7c>
        putch('-', putdat);
     df2:	fac42783          	lw	a5,-84(s0)
     df6:	fa842583          	lw	a1,-88(s0)
     dfa:	02d00513          	li	a0,45
     dfe:	9782                	jalr	a5
        value = -value;
     e00:	fa042903          	lw	s2,-96(s0)
     e04:	fa442703          	lw	a4,-92(s0)
     e08:	800007b7          	lui	a5,0x80000
     e0c:	00f749b3          	xor	s3,a4,a5
     e10:	fb242023          	sw	s2,-96(s0)
     e14:	fb342223          	sw	s3,-92(s0)
    }
    long long int_part = (long long)value;
     e18:	fa042503          	lw	a0,-96(s0)
     e1c:	fa442583          	lw	a1,-92(s0)
     e20:	365020ef          	jal	3984 <__fixdfdi>
     e24:	872a                	mv	a4,a0
     e26:	87ae                	mv	a5,a1
     e28:	fee42423          	sw	a4,-24(s0)
     e2c:	fef42623          	sw	a5,-20(s0)
    double frac_part = value - (double)int_part;
     e30:	fe842503          	lw	a0,-24(s0)
     e34:	fec42583          	lw	a1,-20(s0)
     e38:	473020ef          	jal	3aaa <__floatdidf>
     e3c:	872a                	mv	a4,a0
     e3e:	87ae                	mv	a5,a1
     e40:	863a                	mv	a2,a4
     e42:	86be                	mv	a3,a5
     e44:	fa042503          	lw	a0,-96(s0)
     e48:	fa442583          	lw	a1,-92(s0)
     e4c:	6b7010ef          	jal	2d02 <__subdf3>
     e50:	872a                	mv	a4,a0
     e52:	87ae                	mv	a5,a1
     e54:	fee42023          	sw	a4,-32(s0)
     e58:	fef42223          	sw	a5,-28(s0)

    // 打印整数部分
    char buf[32];
    int pos = 0;
     e5c:	fc042e23          	sw	zero,-36(s0)
    if (int_part == 0)
     e60:	fe842783          	lw	a5,-24(s0)
     e64:	fec42703          	lw	a4,-20(s0)
     e68:	8fd9                	or	a5,a5,a4
     e6a:	ebb5                	bnez	a5,ede <printdoubleF+0x142>
        buf[pos++] = '0';
     e6c:	fdc42783          	lw	a5,-36(s0)
     e70:	00178713          	addi	a4,a5,1 # 80000001 <__top_dmem+0x7ff70001>
     e74:	fce42e23          	sw	a4,-36(s0)
     e78:	17c1                	addi	a5,a5,-16
     e7a:	97a2                	add	a5,a5,s0
     e7c:	03000713          	li	a4,48
     e80:	fce78023          	sb	a4,-64(a5)
     e84:	a0bd                	j	ef2 <printdoubleF+0x156>
    else {
        while (int_part > 0) {
            buf[pos++] = '0' + (int_part % 10);
     e86:	fe842703          	lw	a4,-24(s0)
     e8a:	fec42783          	lw	a5,-20(s0)
     e8e:	4629                	li	a2,10
     e90:	4681                	li	a3,0
     e92:	853a                	mv	a0,a4
     e94:	85be                	mv	a1,a5
     e96:	41f000ef          	jal	1ab4 <__moddi3>
     e9a:	872a                	mv	a4,a0
     e9c:	87ae                	mv	a5,a1
     e9e:	0ff77713          	zext.b	a4,a4
     ea2:	fdc42783          	lw	a5,-36(s0)
     ea6:	00178693          	addi	a3,a5,1
     eaa:	fcd42e23          	sw	a3,-36(s0)
     eae:	03070713          	addi	a4,a4,48
     eb2:	0ff77713          	zext.b	a4,a4
     eb6:	17c1                	addi	a5,a5,-16
     eb8:	97a2                	add	a5,a5,s0
     eba:	fce78023          	sb	a4,-64(a5)
            int_part /= 10;
     ebe:	fe842703          	lw	a4,-24(s0)
     ec2:	fec42783          	lw	a5,-20(s0)
     ec6:	4629                	li	a2,10
     ec8:	4681                	li	a3,0
     eca:	853a                	mv	a0,a4
     ecc:	85be                	mv	a1,a5
     ece:	003000ef          	jal	16d0 <__divdi3>
     ed2:	872a                	mv	a4,a0
     ed4:	87ae                	mv	a5,a1
     ed6:	fee42423          	sw	a4,-24(s0)
     eda:	fef42623          	sw	a5,-20(s0)
        while (int_part > 0) {
     ede:	fec42783          	lw	a5,-20(s0)
     ee2:	faf042e3          	bgtz	a5,e86 <printdoubleF+0xea>
     ee6:	fec42783          	lw	a5,-20(s0)
     eea:	e781                	bnez	a5,ef2 <printdoubleF+0x156>
     eec:	fe842783          	lw	a5,-24(s0)
     ef0:	fbd9                	bnez	a5,e86 <printdoubleF+0xea>
        }
    }
    for (int i = pos - 1; i >= 0; --i)
     ef2:	fdc42783          	lw	a5,-36(s0)
     ef6:	17fd                	addi	a5,a5,-1
     ef8:	fcf42c23          	sw	a5,-40(s0)
     efc:	a01d                	j	f22 <printdoubleF+0x186>
        putch(buf[i], putdat);
     efe:	fd842783          	lw	a5,-40(s0)
     f02:	17c1                	addi	a5,a5,-16
     f04:	97a2                	add	a5,a5,s0
     f06:	fc07c783          	lbu	a5,-64(a5)
     f0a:	873e                	mv	a4,a5
     f0c:	fac42783          	lw	a5,-84(s0)
     f10:	fa842583          	lw	a1,-88(s0)
     f14:	853a                	mv	a0,a4
     f16:	9782                	jalr	a5
    for (int i = pos - 1; i >= 0; --i)
     f18:	fd842783          	lw	a5,-40(s0)
     f1c:	17fd                	addi	a5,a5,-1
     f1e:	fcf42c23          	sw	a5,-40(s0)
     f22:	fd842783          	lw	a5,-40(s0)
     f26:	fc07dce3          	bgez	a5,efe <printdoubleF+0x162>

    putch('.', putdat);
     f2a:	fac42783          	lw	a5,-84(s0)
     f2e:	fa842583          	lw	a1,-88(s0)
     f32:	02e00513          	li	a0,46
     f36:	9782                	jalr	a5

    // 打印小数部分
    for (int i = 0; i < precision; ++i) {
     f38:	fc042a23          	sw	zero,-44(s0)
     f3c:	a8bd                	j	fba <printdoubleF+0x21e>
        frac_part *= 10;
     f3e:	000807b7          	lui	a5,0x80
     f42:	1887a603          	lw	a2,392(a5) # 80188 <_srodata+0x188>
     f46:	18c7a683          	lw	a3,396(a5)
     f4a:	fe042503          	lw	a0,-32(s0)
     f4e:	fe442583          	lw	a1,-28(s0)
     f52:	726010ef          	jal	2678 <__muldf3>
     f56:	872a                	mv	a4,a0
     f58:	87ae                	mv	a5,a1
     f5a:	fee42023          	sw	a4,-32(s0)
     f5e:	fef42223          	sw	a5,-28(s0)
        int digit = (int)frac_part;
     f62:	fe042503          	lw	a0,-32(s0)
     f66:	fe442583          	lw	a1,-28(s0)
     f6a:	0cb020ef          	jal	3834 <__fixdfsi>
     f6e:	87aa                	mv	a5,a0
     f70:	fcf42823          	sw	a5,-48(s0)
        putch('0' + digit, putdat);
     f74:	fd042783          	lw	a5,-48(s0)
     f78:	03078713          	addi	a4,a5,48
     f7c:	fac42783          	lw	a5,-84(s0)
     f80:	fa842583          	lw	a1,-88(s0)
     f84:	853a                	mv	a0,a4
     f86:	9782                	jalr	a5
        frac_part -= digit;
     f88:	fd042503          	lw	a0,-48(s0)
     f8c:	18b020ef          	jal	3916 <__floatsidf>
     f90:	872a                	mv	a4,a0
     f92:	87ae                	mv	a5,a1
     f94:	863a                	mv	a2,a4
     f96:	86be                	mv	a3,a5
     f98:	fe042503          	lw	a0,-32(s0)
     f9c:	fe442583          	lw	a1,-28(s0)
     fa0:	563010ef          	jal	2d02 <__subdf3>
     fa4:	872a                	mv	a4,a0
     fa6:	87ae                	mv	a5,a1
     fa8:	fee42023          	sw	a4,-32(s0)
     fac:	fef42223          	sw	a5,-28(s0)
    for (int i = 0; i < precision; ++i) {
     fb0:	fd442783          	lw	a5,-44(s0)
     fb4:	0785                	addi	a5,a5,1
     fb6:	fcf42a23          	sw	a5,-44(s0)
     fba:	fd442703          	lw	a4,-44(s0)
     fbe:	f9842783          	lw	a5,-104(s0)
     fc2:	f6f74ee3          	blt	a4,a5,f3e <printdoubleF+0x1a2>
    }
}
     fc6:	0001                	nop
     fc8:	0001                	nop
     fca:	50b6                	lw	ra,108(sp)
     fcc:	5426                	lw	s0,104(sp)
     fce:	5916                	lw	s2,100(sp)
     fd0:	5986                	lw	s3,96(sp)
     fd2:	6165                	addi	sp,sp,112
     fd4:	8082                	ret

00000fd6 <vprintfmt>:

static void
vprintfmt(void(*putch)(int, void**), void **putdat, const char *fmt, va_list ap)
{
     fd6:	715d                	addi	sp,sp,-80
     fd8:	c686                	sw	ra,76(sp)
     fda:	c4a2                	sw	s0,72(sp)
     fdc:	c2a6                	sw	s1,68(sp)
     fde:	c0ca                	sw	s2,64(sp)
     fe0:	0880                	addi	s0,sp,80
     fe2:	faa42e23          	sw	a0,-68(s0)
     fe6:	fab42c23          	sw	a1,-72(s0)
     fea:	fac42a23          	sw	a2,-76(s0)
     fee:	fad42823          	sw	a3,-80(s0)
    int lflag;
    int width;
    int precision;
    int altflag;
    char padc;
    int hex_A = 'a';
     ff2:	06100793          	li	a5,97
     ff6:	fcf42823          	sw	a5,-48(s0)
    for ( ;; ) {
        while ( (ch = *(unsigned char *)fmt) != '%' ) {
     ffa:	a831                	j	1016 <vprintfmt+0x40>
            if ( ch == '\0' )
     ffc:	36048763          	beqz	s1,136a <vprintfmt+0x394>
                return;
            ++fmt;
    1000:	fb442783          	lw	a5,-76(s0)
    1004:	0785                	addi	a5,a5,1
    1006:	faf42a23          	sw	a5,-76(s0)
            putch(ch, putdat);
    100a:	fbc42783          	lw	a5,-68(s0)
    100e:	fb842583          	lw	a1,-72(s0)
    1012:	8526                	mv	a0,s1
    1014:	9782                	jalr	a5
        while ( (ch = *(unsigned char *)fmt) != '%' ) {
    1016:	fb442783          	lw	a5,-76(s0)
    101a:	0007c783          	lbu	a5,0(a5)
    101e:	84be                	mv	s1,a5
    1020:	02500793          	li	a5,37
    1024:	fcf49ce3          	bne	s1,a5,ffc <vprintfmt+0x26>
        }
        ++fmt;
    1028:	fb442783          	lw	a5,-76(s0)
    102c:	0785                	addi	a5,a5,1
    102e:	faf42a23          	sw	a5,-76(s0)

        // Process a %-escape sequence
        last_fmt = fmt;
    1032:	fb442783          	lw	a5,-76(s0)
    1036:	fcf42623          	sw	a5,-52(s0)
        padc = ' ';
    103a:	02000793          	li	a5,32
    103e:	fcf40ba3          	sb	a5,-41(s0)
        width = -1;
    1042:	57fd                	li	a5,-1
    1044:	fcf42e23          	sw	a5,-36(s0)
        precision = -1;
    1048:	57fd                	li	a5,-1
    104a:	fcf42c23          	sw	a5,-40(s0)
        lflag = 0;
    104e:	fe042023          	sw	zero,-32(s0)
        altflag = 0;
    1052:	fc042423          	sw	zero,-56(s0)

reswitch:
        switch ( ch = *(unsigned char *)fmt++ ) {
    1056:	fb442783          	lw	a5,-76(s0)
    105a:	00178713          	addi	a4,a5,1
    105e:	fae42a23          	sw	a4,-76(s0)
    1062:	0007c783          	lbu	a5,0(a5)
    1066:	84be                	mv	s1,a5
    1068:	fdd48793          	addi	a5,s1,-35
    106c:	05500713          	li	a4,85
    1070:	2ef76063          	bltu	a4,a5,1350 <vprintfmt+0x37a>
    1074:	00279713          	slli	a4,a5,0x2
    1078:	000807b7          	lui	a5,0x80
    107c:	03078793          	addi	a5,a5,48 # 80030 <_srodata+0x30>
    1080:	97ba                	add	a5,a5,a4
    1082:	439c                	lw	a5,0(a5)
    1084:	8782                	jr	a5
            // flag to pad on the right
            case '-':
                padc = '-';
    1086:	02d00793          	li	a5,45
    108a:	fcf40ba3          	sb	a5,-41(s0)
                goto reswitch;
    108e:	b7e1                	j	1056 <vprintfmt+0x80>

                // flag to pad with 0's instead of spaces
            case '0':
                padc = '0';
    1090:	03000793          	li	a5,48
    1094:	fcf40ba3          	sb	a5,-41(s0)
                goto reswitch;
    1098:	bf7d                	j	1056 <vprintfmt+0x80>
            case '5':
            case '6':
            case '7':
            case '8':
            case '9':
                for ( precision = 0;; ++fmt ) {
    109a:	fc042c23          	sw	zero,-40(s0)
                    precision = precision * 10 + ch - '0';
    109e:	fd842703          	lw	a4,-40(s0)
    10a2:	87ba                	mv	a5,a4
    10a4:	078a                	slli	a5,a5,0x2
    10a6:	97ba                	add	a5,a5,a4
    10a8:	0786                	slli	a5,a5,0x1
    10aa:	97a6                	add	a5,a5,s1
    10ac:	fd078793          	addi	a5,a5,-48
    10b0:	fcf42c23          	sw	a5,-40(s0)
                    ch = *fmt;
    10b4:	fb442783          	lw	a5,-76(s0)
    10b8:	0007c783          	lbu	a5,0(a5)
    10bc:	84be                	mv	s1,a5
                    if ( ch < '0' || ch > '9' )
    10be:	02f00793          	li	a5,47
    10c2:	0497d163          	bge	a5,s1,1104 <vprintfmt+0x12e>
    10c6:	03900793          	li	a5,57
    10ca:	0297cd63          	blt	a5,s1,1104 <vprintfmt+0x12e>
                for ( precision = 0;; ++fmt ) {
    10ce:	fb442783          	lw	a5,-76(s0)
    10d2:	0785                	addi	a5,a5,1
    10d4:	faf42a23          	sw	a5,-76(s0)
                    precision = precision * 10 + ch - '0';
    10d8:	b7d9                	j	109e <vprintfmt+0xc8>
                        break;
                }
                goto process_precision;

            case '*':
                precision = va_arg(ap, int);
    10da:	fb042783          	lw	a5,-80(s0)
    10de:	00478713          	addi	a4,a5,4
    10e2:	fae42823          	sw	a4,-80(s0)
    10e6:	439c                	lw	a5,0(a5)
    10e8:	fcf42c23          	sw	a5,-40(s0)
                goto process_precision;
    10ec:	a829                	j	1106 <vprintfmt+0x130>

            case '.':
                if ( width < 0 )
    10ee:	fdc42783          	lw	a5,-36(s0)
    10f2:	f607d2e3          	bgez	a5,1056 <vprintfmt+0x80>
                    width = 0;
    10f6:	fc042e23          	sw	zero,-36(s0)
                goto reswitch;
    10fa:	bfb1                	j	1056 <vprintfmt+0x80>

            case '#':
                altflag = 1;
    10fc:	4785                	li	a5,1
    10fe:	fcf42423          	sw	a5,-56(s0)
                goto reswitch;
    1102:	bf91                	j	1056 <vprintfmt+0x80>
                goto process_precision;
    1104:	0001                	nop

process_precision:
                if ( width < 0 ) {
    1106:	fdc42783          	lw	a5,-36(s0)
    110a:	f407d6e3          	bgez	a5,1056 <vprintfmt+0x80>
                    width = precision;
    110e:	fd842783          	lw	a5,-40(s0)
    1112:	fcf42e23          	sw	a5,-36(s0)
                    precision = -1;
    1116:	57fd                	li	a5,-1
    1118:	fcf42c23          	sw	a5,-40(s0)
                }
                goto reswitch;
    111c:	bf2d                	j	1056 <vprintfmt+0x80>

                // long flag (doubled for long long)
            case 'l':
                lflag++;
    111e:	fe042783          	lw	a5,-32(s0)
    1122:	0785                	addi	a5,a5,1
    1124:	fef42023          	sw	a5,-32(s0)
                goto reswitch;
    1128:	b73d                	j	1056 <vprintfmt+0x80>

                // character
            case 'c':
                putch(va_arg(ap, int), putdat);
    112a:	fb042783          	lw	a5,-80(s0)
    112e:	00478713          	addi	a4,a5,4
    1132:	fae42823          	sw	a4,-80(s0)
    1136:	4398                	lw	a4,0(a5)
    1138:	fbc42783          	lw	a5,-68(s0)
    113c:	fb842583          	lw	a1,-72(s0)
    1140:	853a                	mv	a0,a4
    1142:	9782                	jalr	a5
                break;
    1144:	a415                	j	1368 <vprintfmt+0x392>

                // string
            case 's':
                if ( (p = va_arg(ap, char *)) == NULL )
    1146:	fb042783          	lw	a5,-80(s0)
    114a:	00478713          	addi	a4,a5,4
    114e:	fae42823          	sw	a4,-80(s0)
    1152:	0007a903          	lw	s2,0(a5)
    1156:	00091663          	bnez	s2,1162 <vprintfmt+0x18c>
                    p = "(null)";
    115a:	000807b7          	lui	a5,0x80
    115e:	02878913          	addi	s2,a5,40 # 80028 <_srodata+0x28>
                if ( width > 0 && padc != '-' )
    1162:	fdc42783          	lw	a5,-36(s0)
    1166:	06f05463          	blez	a5,11ce <vprintfmt+0x1f8>
    116a:	fd744703          	lbu	a4,-41(s0)
    116e:	02d00793          	li	a5,45
    1172:	04f70e63          	beq	a4,a5,11ce <vprintfmt+0x1f8>
                    for ( width -= strnlen(p, precision); width > 0; width-- )
    1176:	fdc42483          	lw	s1,-36(s0)
    117a:	fd842783          	lw	a5,-40(s0)
    117e:	85be                	mv	a1,a5
    1180:	854a                	mv	a0,s2
    1182:	3d7020ef          	jal	3d58 <strnlen>
    1186:	87aa                	mv	a5,a0
    1188:	40f487b3          	sub	a5,s1,a5
    118c:	fcf42e23          	sw	a5,-36(s0)
    1190:	a831                	j	11ac <vprintfmt+0x1d6>
                        putch(padc, putdat);
    1192:	fd744703          	lbu	a4,-41(s0)
    1196:	fbc42783          	lw	a5,-68(s0)
    119a:	fb842583          	lw	a1,-72(s0)
    119e:	853a                	mv	a0,a4
    11a0:	9782                	jalr	a5
                    for ( width -= strnlen(p, precision); width > 0; width-- )
    11a2:	fdc42783          	lw	a5,-36(s0)
    11a6:	17fd                	addi	a5,a5,-1
    11a8:	fcf42e23          	sw	a5,-36(s0)
    11ac:	fdc42783          	lw	a5,-36(s0)
    11b0:	fef041e3          	bgtz	a5,1192 <vprintfmt+0x1bc>
                for ( ; (ch = *p) != '\0' && (precision < 0 || --precision >= 0); width-- ) {
    11b4:	a829                	j	11ce <vprintfmt+0x1f8>
                    putch(ch, putdat);
    11b6:	fbc42783          	lw	a5,-68(s0)
    11ba:	fb842583          	lw	a1,-72(s0)
    11be:	8526                	mv	a0,s1
    11c0:	9782                	jalr	a5
                    p++;
    11c2:	0905                	addi	s2,s2,1
                for ( ; (ch = *p) != '\0' && (precision < 0 || --precision >= 0); width-- ) {
    11c4:	fdc42783          	lw	a5,-36(s0)
    11c8:	17fd                	addi	a5,a5,-1
    11ca:	fcf42e23          	sw	a5,-36(s0)
    11ce:	00094783          	lbu	a5,0(s2)
    11d2:	84be                	mv	s1,a5
    11d4:	c89d                	beqz	s1,120a <vprintfmt+0x234>
    11d6:	fd842783          	lw	a5,-40(s0)
    11da:	fc07cee3          	bltz	a5,11b6 <vprintfmt+0x1e0>
    11de:	fd842783          	lw	a5,-40(s0)
    11e2:	17fd                	addi	a5,a5,-1
    11e4:	fcf42c23          	sw	a5,-40(s0)
    11e8:	fd842783          	lw	a5,-40(s0)
    11ec:	fc07d5e3          	bgez	a5,11b6 <vprintfmt+0x1e0>
                }
                for ( ; width > 0; width-- )
    11f0:	a829                	j	120a <vprintfmt+0x234>
                    putch(' ', putdat);
    11f2:	fbc42783          	lw	a5,-68(s0)
    11f6:	fb842583          	lw	a1,-72(s0)
    11fa:	02000513          	li	a0,32
    11fe:	9782                	jalr	a5
                for ( ; width > 0; width-- )
    1200:	fdc42783          	lw	a5,-36(s0)
    1204:	17fd                	addi	a5,a5,-1
    1206:	fcf42e23          	sw	a5,-36(s0)
    120a:	fdc42783          	lw	a5,-36(s0)
    120e:	fef042e3          	bgtz	a5,11f2 <vprintfmt+0x21c>
                break;
    1212:	aa99                	j	1368 <vprintfmt+0x392>

                // (signed) decimal
            case 'd':
                num = getint(&ap, lflag);
    1214:	fb040793          	addi	a5,s0,-80
    1218:	fe042583          	lw	a1,-32(s0)
    121c:	853e                	mv	a0,a5
    121e:	3235                	jal	b4a <getint>
    1220:	872a                	mv	a4,a0
    1222:	87ae                	mv	a5,a1
    1224:	fee42423          	sw	a4,-24(s0)
    1228:	fef42623          	sw	a5,-20(s0)
                if ( (long long)num < 0 ) {
    122c:	fe842703          	lw	a4,-24(s0)
    1230:	fec42783          	lw	a5,-20(s0)
    1234:	0207df63          	bgez	a5,1272 <vprintfmt+0x29c>
                    putch('-', putdat);
    1238:	fbc42783          	lw	a5,-68(s0)
    123c:	fb842583          	lw	a1,-72(s0)
    1240:	02d00513          	li	a0,45
    1244:	9782                	jalr	a5
                    num = -(long long)num;
    1246:	fe842503          	lw	a0,-24(s0)
    124a:	fec42583          	lw	a1,-20(s0)
    124e:	4701                	li	a4,0
    1250:	4781                	li	a5,0
    1252:	40a70633          	sub	a2,a4,a0
    1256:	8832                	mv	a6,a2
    1258:	01073833          	sltu	a6,a4,a6
    125c:	40b786b3          	sub	a3,a5,a1
    1260:	410687b3          	sub	a5,a3,a6
    1264:	86be                	mv	a3,a5
    1266:	8732                	mv	a4,a2
    1268:	87b6                	mv	a5,a3
    126a:	fee42423          	sw	a4,-24(s0)
    126e:	fef42623          	sw	a5,-20(s0)
                }
                base = 10;
    1272:	47a9                	li	a5,10
    1274:	fef42223          	sw	a5,-28(s0)
                goto signed_number;
    1278:	a055                	j	131c <vprintfmt+0x346>

            case 'f':
                {
                    double num = va_arg(ap, double);
    127a:	fb042783          	lw	a5,-80(s0)
    127e:	079d                	addi	a5,a5,7
    1280:	9be1                	andi	a5,a5,-8
    1282:	00878713          	addi	a4,a5,8
    1286:	fae42823          	sw	a4,-80(s0)
    128a:	4398                	lw	a4,0(a5)
    128c:	43dc                	lw	a5,4(a5)
    128e:	fce42023          	sw	a4,-64(s0)
    1292:	fcf42223          	sw	a5,-60(s0)
                    printdoubleF(putch, putdat, num, width, precision, padc);
    1296:	fd744783          	lbu	a5,-41(s0)
    129a:	883e                	mv	a6,a5
    129c:	fd842783          	lw	a5,-40(s0)
    12a0:	fdc42703          	lw	a4,-36(s0)
    12a4:	fc042603          	lw	a2,-64(s0)
    12a8:	fc442683          	lw	a3,-60(s0)
    12ac:	fb842583          	lw	a1,-72(s0)
    12b0:	fbc42503          	lw	a0,-68(s0)
    12b4:	34e5                	jal	d9c <printdoubleF>
                }
                break;
    12b6:	a84d                	j	1368 <vprintfmt+0x392>

                // unsigned decimal
            case 'u':
                base = 10;
    12b8:	47a9                	li	a5,10
    12ba:	fef42223          	sw	a5,-28(s0)
                goto unsigned_number;
    12be:	a0a9                	j	1308 <vprintfmt+0x332>

                // (unsigned) octal
            case 'o':
                // should do something with padding so it's always 3 octits
                base = 8;
    12c0:	47a1                	li	a5,8
    12c2:	fef42223          	sw	a5,-28(s0)
                goto unsigned_number;
    12c6:	a089                	j	1308 <vprintfmt+0x332>

                // pointer
            case 'p':
                // static_assert(sizeof(long) == sizeof(void*));
                lflag = 1;
    12c8:	4785                	li	a5,1
    12ca:	fef42023          	sw	a5,-32(s0)
                putch('0', putdat);
    12ce:	fbc42783          	lw	a5,-68(s0)
    12d2:	fb842583          	lw	a1,-72(s0)
    12d6:	03000513          	li	a0,48
    12da:	9782                	jalr	a5
                putch('x', putdat);
    12dc:	fbc42783          	lw	a5,-68(s0)
    12e0:	fb842583          	lw	a1,-72(s0)
    12e4:	07800513          	li	a0,120
    12e8:	9782                	jalr	a5
                /* fall through to 'x' */

                // (unsigned) hexadecimal
            case 'x':
                hex_A = 'a';
    12ea:	06100793          	li	a5,97
    12ee:	fcf42823          	sw	a5,-48(s0)
                base = 16;
    12f2:	47c1                	li	a5,16
    12f4:	fef42223          	sw	a5,-28(s0)
                goto unsigned_number;
    12f8:	a801                	j	1308 <vprintfmt+0x332>

            case 'X':
                hex_A = 'A';
    12fa:	04100793          	li	a5,65
    12fe:	fcf42823          	sw	a5,-48(s0)
                base = 16;
    1302:	47c1                	li	a5,16
    1304:	fef42223          	sw	a5,-28(s0)
unsigned_number:
                num = getuint(&ap, lflag);
    1308:	fb040793          	addi	a5,s0,-80
    130c:	fe042583          	lw	a1,-32(s0)
    1310:	853e                	mv	a0,a5
    1312:	3075                	jal	bbe <getuint>
    1314:	fea42423          	sw	a0,-24(s0)
    1318:	feb42623          	sw	a1,-20(s0)
signed_number:
                printnum(putch, putdat, num, base, width, padc, hex_A);
    131c:	fe442703          	lw	a4,-28(s0)
    1320:	fd744783          	lbu	a5,-41(s0)
    1324:	fd042883          	lw	a7,-48(s0)
    1328:	883e                	mv	a6,a5
    132a:	fdc42783          	lw	a5,-36(s0)
    132e:	fe842603          	lw	a2,-24(s0)
    1332:	fec42683          	lw	a3,-20(s0)
    1336:	fb842583          	lw	a1,-72(s0)
    133a:	fbc42503          	lw	a0,-68(s0)
    133e:	38c5                	jal	c2e <printnum>
                break;
    1340:	a025                	j	1368 <vprintfmt+0x392>

                // escaped '%' character
            case '%':
                putch(ch, putdat);
    1342:	fbc42783          	lw	a5,-68(s0)
    1346:	fb842583          	lw	a1,-72(s0)
    134a:	8526                	mv	a0,s1
    134c:	9782                	jalr	a5
                break;
    134e:	a829                	j	1368 <vprintfmt+0x392>

                // unrecognized escape sequence - just print it literally
            default:
                putch('%', putdat);
    1350:	fbc42783          	lw	a5,-68(s0)
    1354:	fb842583          	lw	a1,-72(s0)
    1358:	02500513          	li	a0,37
    135c:	9782                	jalr	a5
                fmt = last_fmt;
    135e:	fcc42783          	lw	a5,-52(s0)
    1362:	faf42a23          	sw	a5,-76(s0)
                break;
    1366:	0001                	nop
        while ( (ch = *(unsigned char *)fmt) != '%' ) {
    1368:	b17d                	j	1016 <vprintfmt+0x40>
                return;
    136a:	0001                	nop
        }
    }
}
    136c:	40b6                	lw	ra,76(sp)
    136e:	4426                	lw	s0,72(sp)
    1370:	4496                	lw	s1,68(sp)
    1372:	4906                	lw	s2,64(sp)
    1374:	6161                	addi	sp,sp,80
    1376:	8082                	ret

00001378 <sc_printf>:

int
sc_printf(const char* fmt, ...)
{
    1378:	715d                	addi	sp,sp,-80
    137a:	d606                	sw	ra,44(sp)
    137c:	d422                	sw	s0,40(sp)
    137e:	1800                	addi	s0,sp,48
    1380:	fca42e23          	sw	a0,-36(s0)
    1384:	c04c                	sw	a1,4(s0)
    1386:	c410                	sw	a2,8(s0)
    1388:	c454                	sw	a3,12(s0)
    138a:	c818                	sw	a4,16(s0)
    138c:	c85c                	sw	a5,20(s0)
    138e:	01042c23          	sw	a6,24(s0)
    1392:	01142e23          	sw	a7,28(s0)
    va_list ap;
    va_start(ap, fmt);
    1396:	02040793          	addi	a5,s0,32
    139a:	fcf42c23          	sw	a5,-40(s0)
    139e:	fd842783          	lw	a5,-40(s0)
    13a2:	1791                	addi	a5,a5,-28
    13a4:	fef42623          	sw	a5,-20(s0)

    vprintfmt(printf_putch, NULL, fmt, ap);
    13a8:	fec42783          	lw	a5,-20(s0)
    13ac:	86be                	mv	a3,a5
    13ae:	fdc42603          	lw	a2,-36(s0)
    13b2:	4581                	li	a1,0
    13b4:	6785                	lui	a5,0x1
    13b6:	afc78513          	addi	a0,a5,-1284 # afc <printf_putch>
    13ba:	3931                	jal	fd6 <vprintfmt>

    va_end(ap);
    return 0; // incorrect return value, but who cares, anyway?
    13bc:	4781                	li	a5,0
}
    13be:	853e                	mv	a0,a5
    13c0:	50b2                	lw	ra,44(sp)
    13c2:	5422                	lw	s0,40(sp)
    13c4:	6161                	addi	sp,sp,80
    13c6:	8082                	ret

000013c8 <mtimectrl_read>:
#include "riscv_arch.h"
#include "sc_print.h"
#include <stdint.h>

// 读mtimectrl
uint32_t mtimectrl_read(void) {
    13c8:	1101                	addi	sp,sp,-32
    13ca:	ce22                	sw	s0,28(sp)
    13cc:	1000                	addi	s0,sp,32
    volatile uint32_t* mtime = (volatile uint32_t*)MTIMECTRL_BASE;
    13ce:	020007b7          	lui	a5,0x2000
    13d2:	fef42623          	sw	a5,-20(s0)
    return *mtime;
    13d6:	fec42783          	lw	a5,-20(s0)
    13da:	439c                	lw	a5,0(a5)
}
    13dc:	853e                	mv	a0,a5
    13de:	4472                	lw	s0,28(sp)
    13e0:	6105                	addi	sp,sp,32
    13e2:	8082                	ret

000013e4 <mtimectrl_write>:

// 写mtimectrl
void mtimectrl_write(uint32_t enable, uint32_t div) {
    13e4:	7179                	addi	sp,sp,-48
    13e6:	d622                	sw	s0,44(sp)
    13e8:	1800                	addi	s0,sp,48
    13ea:	fca42e23          	sw	a0,-36(s0)
    13ee:	fcb42c23          	sw	a1,-40(s0)
    uint32_t val = (enable & MTIMECTRL_ENABLE_MASK) | ((div & MTIMECTRL_DIV_MASK) << MTIMECTRL_DIV_SHIFT);
    13f2:	fdc42783          	lw	a5,-36(s0)
    13f6:	0017f713          	andi	a4,a5,1
    13fa:	fd842783          	lw	a5,-40(s0)
    13fe:	0786                	slli	a5,a5,0x1
    1400:	8fd9                	or	a5,a5,a4
    1402:	fef42623          	sw	a5,-20(s0)
    volatile uint32_t* mtime = (volatile uint32_t*)MTIMECTRL_BASE;
    1406:	020007b7          	lui	a5,0x2000
    140a:	fef42423          	sw	a5,-24(s0)
    *mtime = val;
    140e:	fe842783          	lw	a5,-24(s0)
    1412:	fec42703          	lw	a4,-20(s0)
    1416:	c398                	sw	a4,0(a5)
}
    1418:	0001                	nop
    141a:	5432                	lw	s0,44(sp)
    141c:	6145                	addi	sp,sp,48
    141e:	8082                	ret

00001420 <mtime_read>:

// 读mtime
uint32_t mtime_read(void) {
    1420:	1101                	addi	sp,sp,-32
    1422:	ce22                	sw	s0,28(sp)
    1424:	1000                	addi	s0,sp,32
    volatile uint32_t* mtime = (volatile uint32_t*)MTIME_BASE;
    1426:	020007b7          	lui	a5,0x2000
    142a:	0791                	addi	a5,a5,4 # 2000004 <__top_dmem+0x1f70004>
    142c:	fef42623          	sw	a5,-20(s0)
    return *mtime;
    1430:	fec42783          	lw	a5,-20(s0)
    1434:	439c                	lw	a5,0(a5)
}
    1436:	853e                	mv	a0,a5
    1438:	4472                	lw	s0,28(sp)
    143a:	6105                	addi	sp,sp,32
    143c:	8082                	ret

0000143e <mtime_write>:

// 写mtime
void mtime_write(uint32_t val) {
    143e:	7179                	addi	sp,sp,-48
    1440:	d622                	sw	s0,44(sp)
    1442:	1800                	addi	s0,sp,48
    1444:	fca42e23          	sw	a0,-36(s0)
    volatile uint32_t* mtime = (volatile uint32_t*)MTIME_BASE;
    1448:	020007b7          	lui	a5,0x2000
    144c:	0791                	addi	a5,a5,4 # 2000004 <__top_dmem+0x1f70004>
    144e:	fef42623          	sw	a5,-20(s0)
    *mtime = val;
    1452:	fec42783          	lw	a5,-20(s0)
    1456:	fdc42703          	lw	a4,-36(s0)
    145a:	c398                	sw	a4,0(a5)
}
    145c:	0001                	nop
    145e:	5432                	lw	s0,44(sp)
    1460:	6145                	addi	sp,sp,48
    1462:	8082                	ret

00001464 <mtimecmp_read>:

// 读mtimecmp
uint32_t mtimecmp_read(void) {
    1464:	1101                	addi	sp,sp,-32
    1466:	ce22                	sw	s0,28(sp)
    1468:	1000                	addi	s0,sp,32
    volatile uint32_t* mtimecmp = (volatile uint32_t*)MTIMECMP_BASE;
    146a:	020007b7          	lui	a5,0x2000
    146e:	07a1                	addi	a5,a5,8 # 2000008 <__top_dmem+0x1f70008>
    1470:	fef42623          	sw	a5,-20(s0)
    return *mtimecmp;
    1474:	fec42783          	lw	a5,-20(s0)
    1478:	439c                	lw	a5,0(a5)
}
    147a:	853e                	mv	a0,a5
    147c:	4472                	lw	s0,28(sp)
    147e:	6105                	addi	sp,sp,32
    1480:	8082                	ret

00001482 <mtimecmp_write>:

// 写mtimecmp
void mtimecmp_write(uint32_t val) {
    1482:	7179                	addi	sp,sp,-48
    1484:	d622                	sw	s0,44(sp)
    1486:	1800                	addi	s0,sp,48
    1488:	fca42e23          	sw	a0,-36(s0)
    volatile uint32_t* mtimecmp = (volatile uint32_t*)MTIMECMP_BASE;
    148c:	020007b7          	lui	a5,0x2000
    1490:	07a1                	addi	a5,a5,8 # 2000008 <__top_dmem+0x1f70008>
    1492:	fef42623          	sw	a5,-20(s0)
    *mtimecmp = val;
    1496:	fec42783          	lw	a5,-20(s0)
    149a:	fdc42703          	lw	a4,-36(s0)
    149e:	c398                	sw	a4,0(a5)
}
    14a0:	0001                	nop
    14a2:	5432                	lw	s0,44(sp)
    14a4:	6145                	addi	sp,sp,48
    14a6:	8082                	ret

000014a8 <halt>:

void halt() {
    14a8:	1141                	addi	sp,sp,-16
    14aa:	c622                	sw	s0,12(sp)
    14ac:	0800                	addi	s0,sp,16
    // 通过无限循环来模拟 halt
    while (1) {
        __asm__ volatile ("nop");  // 等待处理器循环
    14ae:	0001                	nop
    14b0:	bffd                	j	14ae <halt+0x6>

000014b2 <interrupt_init>:
    }
}

// ====== 中断初始化及使能 ======

void interrupt_init(void) {
    14b2:	1101                	addi	sp,sp,-32
    14b4:	ce22                	sw	s0,28(sp)
    14b6:	1000                	addi	s0,sp,32
    // 全局使能 machine 中断
    set_csr(mstatus, MSTATUS_MIE); // MSTATUS_MIE
    14b8:	300467f3          	csrrsi	a5,mstatus,8
    14bc:	fef42623          	sw	a5,-20(s0)
}
    14c0:	0001                	nop
    14c2:	4472                	lw	s0,28(sp)
    14c4:	6105                	addi	sp,sp,32
    14c6:	8082                	ret

000014c8 <enable_timer_interrupt>:

void enable_timer_interrupt(void) {
    14c8:	1101                	addi	sp,sp,-32
    14ca:	ce22                	sw	s0,28(sp)
    14cc:	1000                	addi	s0,sp,32
    set_csr(mie, MIE_MTIE);     // MIE_MTIE
    14ce:	08000793          	li	a5,128
    14d2:	3047a7f3          	csrrs	a5,mie,a5
    14d6:	fef42623          	sw	a5,-20(s0)
}
    14da:	0001                	nop
    14dc:	4472                	lw	s0,28(sp)
    14de:	6105                	addi	sp,sp,32
    14e0:	8082                	ret

000014e2 <disable_timer_interrupt>:
void disable_timer_interrupt(void) {
    14e2:	1101                	addi	sp,sp,-32
    14e4:	ce22                	sw	s0,28(sp)
    14e6:	1000                	addi	s0,sp,32
    clear_csr(mie, MIE_MTIE);
    14e8:	08000793          	li	a5,128
    14ec:	3047b7f3          	csrrc	a5,mie,a5
    14f0:	fef42623          	sw	a5,-20(s0)
}
    14f4:	0001                	nop
    14f6:	4472                	lw	s0,28(sp)
    14f8:	6105                	addi	sp,sp,32
    14fa:	8082                	ret

000014fc <enable_software_interrupt>:
void enable_software_interrupt(void) {
    14fc:	1101                	addi	sp,sp,-32
    14fe:	ce22                	sw	s0,28(sp)
    1500:	1000                	addi	s0,sp,32
    set_csr(mie, MIE_MSIE);
    1502:	304467f3          	csrrsi	a5,mie,8
    1506:	fef42623          	sw	a5,-20(s0)
}
    150a:	0001                	nop
    150c:	4472                	lw	s0,28(sp)
    150e:	6105                	addi	sp,sp,32
    1510:	8082                	ret

00001512 <disable_software_interrupt>:
void disable_software_interrupt(void) {
    1512:	1101                	addi	sp,sp,-32
    1514:	ce22                	sw	s0,28(sp)
    1516:	1000                	addi	s0,sp,32
    clear_csr(mie, MIE_MSIE);
    1518:	304477f3          	csrrci	a5,mie,8
    151c:	fef42623          	sw	a5,-20(s0)
}
    1520:	0001                	nop
    1522:	4472                	lw	s0,28(sp)
    1524:	6105                	addi	sp,sp,32
    1526:	8082                	ret

00001528 <sys_ecall>:


// ---- 系统调用 ----

void sys_ecall(int sys_id, int arg) {
    1528:	1101                	addi	sp,sp,-32
    152a:	ce22                	sw	s0,28(sp)
    152c:	1000                	addi	s0,sp,32
    152e:	fea42623          	sw	a0,-20(s0)
    1532:	feb42423          	sw	a1,-24(s0)
    register int a7 __asm__("a7") = sys_id;
    1536:	fec42883          	lw	a7,-20(s0)
    register int a0 __asm__("a0") = arg;
    153a:	fe842503          	lw	a0,-24(s0)
    __asm__ volatile (
    153e:	00000073          	ecall
        "ecall"
        : "+r"(a0)
        : "r"(a7)
    );
}
    1542:	0001                	nop
    1544:	4472                	lw	s0,28(sp)
    1546:	6105                	addi	sp,sp,32
    1548:	8082                	ret

0000154a <sys_ebreak>:

void sys_ebreak(void) {
    154a:	1141                	addi	sp,sp,-16
    154c:	c622                	sw	s0,12(sp)
    154e:	0800                	addi	s0,sp,16
    __asm__ volatile ("ebreak");
    1550:	9002                	ebreak
}
    1552:	0001                	nop
    1554:	4432                	lw	s0,12(sp)
    1556:	0141                	addi	sp,sp,16
    1558:	8082                	ret

0000155a <trap_handler_c>:

void trap_handler_c(unsigned long mcause, unsigned long mepc, unsigned long mtval) {
    155a:	7179                	addi	sp,sp,-48
    155c:	d606                	sw	ra,44(sp)
    155e:	d422                	sw	s0,40(sp)
    1560:	1800                	addi	s0,sp,48
    1562:	fca42e23          	sw	a0,-36(s0)
    1566:	fcb42c23          	sw	a1,-40(s0)
    156a:	fcc42a23          	sw	a2,-44(s0)
    sc_printf("TRAP: mcause=0x%lx\n", mcause);
    156e:	fdc42583          	lw	a1,-36(s0)
    1572:	000807b7          	lui	a5,0x80
    1576:	19078513          	addi	a0,a5,400 # 80190 <_srodata+0x190>
    157a:	3bfd                	jal	1378 <sc_printf>
    if ((mcause & (1UL << (sizeof(long)*8-1))) == 0) {
    157c:	fdc42783          	lw	a5,-36(s0)
    1580:	0807c263          	bltz	a5,1604 <trap_handler_c+0xaa>
        unsigned long code = mcause & 0xFFF;
    1584:	fdc42703          	lw	a4,-36(s0)
    1588:	6785                	lui	a5,0x1
    158a:	17fd                	addi	a5,a5,-1 # fff <vprintfmt+0x29>
    158c:	8ff9                	and	a5,a5,a4
    158e:	fef42623          	sw	a5,-20(s0)
        if (code == 11) {
    1592:	fec42703          	lw	a4,-20(s0)
    1596:	47ad                	li	a5,11
    1598:	02f71a63          	bne	a4,a5,15cc <trap_handler_c+0x72>
            // ecall
            unsigned int instr_info = (unsigned int)mtval;
    159c:	fd442783          	lw	a5,-44(s0)
    15a0:	fef42223          	sw	a5,-28(s0)
            if ((instr_info & 0x1) == 0x1) // instr_info 的最低位表示指令长度
    15a4:	fe442783          	lw	a5,-28(s0)
    15a8:	8b85                	andi	a5,a5,1
    15aa:	c799                	beqz	a5,15b8 <trap_handler_c+0x5e>
                mepc += 4; // 32-bit
    15ac:	fd842783          	lw	a5,-40(s0)
    15b0:	0791                	addi	a5,a5,4
    15b2:	fcf42c23          	sw	a5,-40(s0)
    15b6:	a031                	j	15c2 <trap_handler_c+0x68>
            else
                mepc += 2; // 16-bit
    15b8:	fd842783          	lw	a5,-40(s0)
    15bc:	0789                	addi	a5,a5,2
    15be:	fcf42c23          	sw	a5,-40(s0)
            __asm__ volatile ("csrw mepc, %0" :: "r"(mepc));
    15c2:	fd842783          	lw	a5,-40(s0)
    15c6:	34179073          	csrw	mepc,a5
            __asm__ volatile ("csrw mepc, %0" :: "r"(mepc));
        }
        // 其它异常处理
    }
    // ...
}
    15ca:	a82d                	j	1604 <trap_handler_c+0xaa>
        } else if (code == 3) {
    15cc:	fec42703          	lw	a4,-20(s0)
    15d0:	478d                	li	a5,3
    15d2:	02f71963          	bne	a4,a5,1604 <trap_handler_c+0xaa>
            unsigned int instr_info = (unsigned int)mtval;
    15d6:	fd442783          	lw	a5,-44(s0)
    15da:	fef42423          	sw	a5,-24(s0)
            if ((instr_info & 0x1) == 0x1) // instr_info 的最低位表示指令长度
    15de:	fe842783          	lw	a5,-24(s0)
    15e2:	8b85                	andi	a5,a5,1
    15e4:	c799                	beqz	a5,15f2 <trap_handler_c+0x98>
                mepc += 4; // 32-bit
    15e6:	fd842783          	lw	a5,-40(s0)
    15ea:	0791                	addi	a5,a5,4
    15ec:	fcf42c23          	sw	a5,-40(s0)
    15f0:	a031                	j	15fc <trap_handler_c+0xa2>
                mepc += 2; // 16-bit
    15f2:	fd842783          	lw	a5,-40(s0)
    15f6:	0789                	addi	a5,a5,2
    15f8:	fcf42c23          	sw	a5,-40(s0)
            __asm__ volatile ("csrw mepc, %0" :: "r"(mepc));
    15fc:	fd842783          	lw	a5,-40(s0)
    1600:	34179073          	csrw	mepc,a5
}
    1604:	0001                	nop
    1606:	50b2                	lw	ra,44(sp)
    1608:	5422                	lw	s0,40(sp)
    160a:	6145                	addi	sp,sp,48
    160c:	8082                	ret

0000160e <msoft_handler_c>:


void msoft_handler_c(void) {
    160e:	1141                	addi	sp,sp,-16
    1610:	c606                	sw	ra,12(sp)
    1612:	c422                	sw	s0,8(sp)
    1614:	0800                	addi	s0,sp,16
    sc_printf("Machine Software Interrupt!\n");
    1616:	000807b7          	lui	a5,0x80
    161a:	1a478513          	addi	a0,a5,420 # 801a4 <_srodata+0x1a4>
    161e:	3ba9                	jal	1378 <sc_printf>
    // 清pending等
}
    1620:	0001                	nop
    1622:	40b2                	lw	ra,12(sp)
    1624:	4422                	lw	s0,8(sp)
    1626:	0141                	addi	sp,sp,16
    1628:	8082                	ret

0000162a <mtimer_handler_c>:
void mtimer_handler_c(void) {
    162a:	1101                	addi	sp,sp,-32
    162c:	ce06                	sw	ra,28(sp)
    162e:	cc22                	sw	s0,24(sp)
    1630:	1000                	addi	s0,sp,32
    sc_printf("Machine Timer Interrupt!\n");
    1632:	000807b7          	lui	a5,0x80
    1636:	1c478513          	addi	a0,a5,452 # 801c4 <_srodata+0x1c4>
    163a:	3b3d                	jal	1378 <sc_printf>
    // 清pending: 软件通常只需要重新设置mtimecmp到下一个时间点
    uint32_t now = mtime_read();
    163c:	33d5                	jal	1420 <mtime_read>
    163e:	fea42623          	sw	a0,-20(s0)
    mtimecmp_write(now + 10000); // 举例：下一个定时周期
    1642:	fec42703          	lw	a4,-20(s0)
    1646:	6789                	lui	a5,0x2
    1648:	71078793          	addi	a5,a5,1808 # 2710 <__muldf3+0x98>
    164c:	97ba                	add	a5,a5,a4
    164e:	853e                	mv	a0,a5
    1650:	3d0d                	jal	1482 <mtimecmp_write>
}
    1652:	0001                	nop
    1654:	40f2                	lw	ra,28(sp)
    1656:	4462                	lw	s0,24(sp)
    1658:	6105                	addi	sp,sp,32
    165a:	8082                	ret

0000165c <mext_handler_c>:
void mext_handler_c(void) {
    165c:	1141                	addi	sp,sp,-16
    165e:	c606                	sw	ra,12(sp)
    1660:	c422                	sw	s0,8(sp)
    1662:	0800                	addi	s0,sp,16
    sc_printf("Machine External Interrupt!\n");
    1664:	000807b7          	lui	a5,0x80
    1668:	1e078513          	addi	a0,a5,480 # 801e0 <_srodata+0x1e0>
    166c:	3331                	jal	1378 <sc_printf>
    // 读取外部中断源、清除等
    166e:	0001                	nop
    1670:	40b2                	lw	ra,12(sp)
    1672:	4422                	lw	s0,8(sp)
    1674:	0141                	addi	sp,sp,16
    1676:	8082                	ret

00001678 <uart_putc>:
#include "virt_uart.h"
#define UART_BASE 0x10000000

void uart_putc(char c) {
    1678:	1101                	addi	sp,sp,-32
    167a:	ce22                	sw	s0,28(sp)
    167c:	1000                	addi	s0,sp,32
    167e:	87aa                	mv	a5,a0
    1680:	fef407a3          	sb	a5,-17(s0)
    *(volatile char *)UART_BASE = c;
    1684:	100007b7          	lui	a5,0x10000
    1688:	fef44703          	lbu	a4,-17(s0)
    168c:	00e78023          	sb	a4,0(a5) # 10000000 <__top_dmem+0xff70000>
}
    1690:	0001                	nop
    1692:	4472                	lw	s0,28(sp)
    1694:	6105                	addi	sp,sp,32
    1696:	8082                	ret

00001698 <uart_puts>:

void uart_puts(const char *str) {
    1698:	1101                	addi	sp,sp,-32
    169a:	ce06                	sw	ra,28(sp)
    169c:	cc22                	sw	s0,24(sp)
    169e:	1000                	addi	s0,sp,32
    16a0:	fea42623          	sw	a0,-20(s0)
    while (*str) {
    16a4:	a819                	j	16ba <uart_puts+0x22>
        uart_putc(*str++);
    16a6:	fec42783          	lw	a5,-20(s0)
    16aa:	00178713          	addi	a4,a5,1
    16ae:	fee42623          	sw	a4,-20(s0)
    16b2:	0007c783          	lbu	a5,0(a5)
    16b6:	853e                	mv	a0,a5
    16b8:	37c1                	jal	1678 <uart_putc>
    while (*str) {
    16ba:	fec42783          	lw	a5,-20(s0)
    16be:	0007c783          	lbu	a5,0(a5)
    16c2:	f3f5                	bnez	a5,16a6 <uart_puts+0xe>
    }
    16c4:	0001                	nop
    16c6:	0001                	nop
    16c8:	40f2                	lw	ra,28(sp)
    16ca:	4462                	lw	s0,24(sp)
    16cc:	6105                	addi	sp,sp,32
    16ce:	8082                	ret

000016d0 <__divdi3>:
    16d0:	4801                	li	a6,0
    16d2:	0e05c863          	bltz	a1,17c2 <__divdi3+0xf2>
    16d6:	0006db63          	bgez	a3,16ec <__divdi3+0x1c>
    16da:	00c037b3          	snez	a5,a2
    16de:	40d006b3          	neg	a3,a3
    16e2:	fff84813          	not	a6,a6
    16e6:	8e9d                	sub	a3,a3,a5
    16e8:	40c00633          	neg	a2,a2
    16ec:	88b2                	mv	a7,a2
    16ee:	872a                	mv	a4,a0
    16f0:	832e                	mv	t1,a1
    16f2:	e2f9                	bnez	a3,17b8 <__divdi3+0xe8>
    16f4:	12c5f163          	bgeu	a1,a2,1816 <__divdi3+0x146>
    16f8:	67c1                	lui	a5,0x10
    16fa:	1af66c63          	bltu	a2,a5,18b2 <__divdi3+0x1e2>
    16fe:	010007b7          	lui	a5,0x1000
    1702:	46e1                	li	a3,24
    1704:	00f67363          	bgeu	a2,a5,170a <__divdi3+0x3a>
    1708:	46c1                	li	a3,16
    170a:	00d65e33          	srl	t3,a2,a3
    170e:	0007f797          	auipc	a5,0x7f
    1712:	af278793          	addi	a5,a5,-1294 # 80200 <__clz_tab>
    1716:	97f2                	add	a5,a5,t3
    1718:	0007c783          	lbu	a5,0(a5)
    171c:	02000e13          	li	t3,32
    1720:	97b6                	add	a5,a5,a3
    1722:	40fe06b3          	sub	a3,t3,a5
    1726:	00fe0c63          	beq	t3,a5,173e <__divdi3+0x6e>
    172a:	00d59333          	sll	t1,a1,a3
    172e:	00f557b3          	srl	a5,a0,a5
    1732:	00d618b3          	sll	a7,a2,a3
    1736:	0067e333          	or	t1,a5,t1
    173a:	00d51733          	sll	a4,a0,a3
    173e:	0108d613          	srli	a2,a7,0x10
    1742:	02c35533          	divu	a0,t1,a2
    1746:	01089693          	slli	a3,a7,0x10
    174a:	82c1                	srli	a3,a3,0x10
    174c:	01075793          	srli	a5,a4,0x10
    1750:	02c37333          	remu	t1,t1,a2
    1754:	02a685b3          	mul	a1,a3,a0
    1758:	0342                	slli	t1,t1,0x10
    175a:	0067e7b3          	or	a5,a5,t1
    175e:	00b7fa63          	bgeu	a5,a1,1772 <__divdi3+0xa2>
    1762:	97c6                	add	a5,a5,a7
    1764:	fff50313          	addi	t1,a0,-1
    1768:	0117e463          	bltu	a5,a7,1770 <__divdi3+0xa0>
    176c:	32b7ed63          	bltu	a5,a1,1aa6 <__divdi3+0x3d6>
    1770:	851a                	mv	a0,t1
    1772:	8f8d                	sub	a5,a5,a1
    1774:	02c7d5b3          	divu	a1,a5,a2
    1778:	0742                	slli	a4,a4,0x10
    177a:	8341                	srli	a4,a4,0x10
    177c:	02c7f7b3          	remu	a5,a5,a2
    1780:	02b686b3          	mul	a3,a3,a1
    1784:	07c2                	slli	a5,a5,0x10
    1786:	8f5d                	or	a4,a4,a5
    1788:	00d77b63          	bgeu	a4,a3,179e <__divdi3+0xce>
    178c:	9746                	add	a4,a4,a7
    178e:	fff58793          	addi	a5,a1,-1
    1792:	01176563          	bltu	a4,a7,179c <__divdi3+0xcc>
    1796:	15f9                	addi	a1,a1,-2
    1798:	00d76363          	bltu	a4,a3,179e <__divdi3+0xce>
    179c:	85be                	mv	a1,a5
    179e:	0542                	slli	a0,a0,0x10
    17a0:	8d4d                	or	a0,a0,a1
    17a2:	4581                	li	a1,0
    17a4:	00080963          	beqz	a6,17b6 <__divdi3+0xe6>
    17a8:	00a037b3          	snez	a5,a0
    17ac:	40b005b3          	neg	a1,a1
    17b0:	8d9d                	sub	a1,a1,a5
    17b2:	40a00533          	neg	a0,a0
    17b6:	8082                	ret
    17b8:	00d5fe63          	bgeu	a1,a3,17d4 <__divdi3+0x104>
    17bc:	4581                	li	a1,0
    17be:	4501                	li	a0,0
    17c0:	b7d5                	j	17a4 <__divdi3+0xd4>
    17c2:	00a037b3          	snez	a5,a0
    17c6:	40b005b3          	neg	a1,a1
    17ca:	8d9d                	sub	a1,a1,a5
    17cc:	40a00533          	neg	a0,a0
    17d0:	587d                	li	a6,-1
    17d2:	b711                	j	16d6 <__divdi3+0x6>
    17d4:	67c1                	lui	a5,0x10
    17d6:	18f6e663          	bltu	a3,a5,1962 <__divdi3+0x292>
    17da:	01000737          	lui	a4,0x1000
    17de:	47e1                	li	a5,24
    17e0:	00e6f363          	bgeu	a3,a4,17e6 <__divdi3+0x116>
    17e4:	47c1                	li	a5,16
    17e6:	00f6d8b3          	srl	a7,a3,a5
    17ea:	0007f717          	auipc	a4,0x7f
    17ee:	a1670713          	addi	a4,a4,-1514 # 80200 <__clz_tab>
    17f2:	9746                	add	a4,a4,a7
    17f4:	00074703          	lbu	a4,0(a4)
    17f8:	02000313          	li	t1,32
    17fc:	973e                	add	a4,a4,a5
    17fe:	40e308b3          	sub	a7,t1,a4
    1802:	18e31563          	bne	t1,a4,198c <__divdi3+0x2bc>
    1806:	28b6e263          	bltu	a3,a1,1a8a <__divdi3+0x3ba>
    180a:	00c53533          	sltu	a0,a0,a2
    180e:	00153513          	seqz	a0,a0
    1812:	4581                	li	a1,0
    1814:	bf41                	j	17a4 <__divdi3+0xd4>
    1816:	c645                	beqz	a2,18be <__divdi3+0x1ee>
    1818:	67c1                	lui	a5,0x10
    181a:	26f67063          	bgeu	a2,a5,1a7a <__divdi3+0x3aa>
    181e:	10063313          	sltiu	t1,a2,256
    1822:	00133313          	seqz	t1,t1
    1826:	030e                	slli	t1,t1,0x3
    1828:	006656b3          	srl	a3,a2,t1
    182c:	0007f797          	auipc	a5,0x7f
    1830:	9d478793          	addi	a5,a5,-1580 # 80200 <__clz_tab>
    1834:	97b6                	add	a5,a5,a3
    1836:	0007c683          	lbu	a3,0(a5)
    183a:	02000793          	li	a5,32
    183e:	969a                	add	a3,a3,t1
    1840:	40d78eb3          	sub	t4,a5,a3
    1844:	08d79d63          	bne	a5,a3,18de <__divdi3+0x20e>
    1848:	40c586b3          	sub	a3,a1,a2
    184c:	01065313          	srli	t1,a2,0x10
    1850:	0642                	slli	a2,a2,0x10
    1852:	8241                	srli	a2,a2,0x10
    1854:	4585                	li	a1,1
    1856:	0266d533          	divu	a0,a3,t1
    185a:	01075793          	srli	a5,a4,0x10
    185e:	0266f6b3          	remu	a3,a3,t1
    1862:	02c50e33          	mul	t3,a0,a2
    1866:	06c2                	slli	a3,a3,0x10
    1868:	8fd5                	or	a5,a5,a3
    186a:	01c7fa63          	bgeu	a5,t3,187e <__divdi3+0x1ae>
    186e:	97c6                	add	a5,a5,a7
    1870:	fff50693          	addi	a3,a0,-1
    1874:	0117e463          	bltu	a5,a7,187c <__divdi3+0x1ac>
    1878:	23c7e463          	bltu	a5,t3,1aa0 <__divdi3+0x3d0>
    187c:	8536                	mv	a0,a3
    187e:	41c787b3          	sub	a5,a5,t3
    1882:	0267d6b3          	divu	a3,a5,t1
    1886:	0742                	slli	a4,a4,0x10
    1888:	8341                	srli	a4,a4,0x10
    188a:	0267f7b3          	remu	a5,a5,t1
    188e:	02c68633          	mul	a2,a3,a2
    1892:	07c2                	slli	a5,a5,0x10
    1894:	8f5d                	or	a4,a4,a5
    1896:	00c77b63          	bgeu	a4,a2,18ac <__divdi3+0x1dc>
    189a:	9746                	add	a4,a4,a7
    189c:	fff68793          	addi	a5,a3,-1
    18a0:	01176563          	bltu	a4,a7,18aa <__divdi3+0x1da>
    18a4:	16f9                	addi	a3,a3,-2
    18a6:	00c76363          	bltu	a4,a2,18ac <__divdi3+0x1dc>
    18aa:	86be                	mv	a3,a5
    18ac:	0542                	slli	a0,a0,0x10
    18ae:	8d55                	or	a0,a0,a3
    18b0:	bdd5                	j	17a4 <__divdi3+0xd4>
    18b2:	10063693          	sltiu	a3,a2,256
    18b6:	0016b693          	seqz	a3,a3
    18ba:	068e                	slli	a3,a3,0x3
    18bc:	b5b9                	j	170a <__divdi3+0x3a>
    18be:	4681                	li	a3,0
    18c0:	0007f797          	auipc	a5,0x7f
    18c4:	94078793          	addi	a5,a5,-1728 # 80200 <__clz_tab>
    18c8:	97b6                	add	a5,a5,a3
    18ca:	0007c683          	lbu	a3,0(a5)
    18ce:	4301                	li	t1,0
    18d0:	02000793          	li	a5,32
    18d4:	969a                	add	a3,a3,t1
    18d6:	40d78eb3          	sub	t4,a5,a3
    18da:	f6d787e3          	beq	a5,a3,1848 <__divdi3+0x178>
    18de:	01d618b3          	sll	a7,a2,t4
    18e2:	00d5de33          	srl	t3,a1,a3
    18e6:	0108d313          	srli	t1,a7,0x10
    18ea:	026e57b3          	divu	a5,t3,t1
    18ee:	01089613          	slli	a2,a7,0x10
    18f2:	8241                	srli	a2,a2,0x10
    18f4:	00d556b3          	srl	a3,a0,a3
    18f8:	01d51733          	sll	a4,a0,t4
    18fc:	01d595b3          	sll	a1,a1,t4
    1900:	8ecd                	or	a3,a3,a1
    1902:	0106d593          	srli	a1,a3,0x10
    1906:	026e7e33          	remu	t3,t3,t1
    190a:	02f60533          	mul	a0,a2,a5
    190e:	0e42                	slli	t3,t3,0x10
    1910:	01c5e5b3          	or	a1,a1,t3
    1914:	00a5fb63          	bgeu	a1,a0,192a <__divdi3+0x25a>
    1918:	95c6                	add	a1,a1,a7
    191a:	fff78e13          	addi	t3,a5,-1
    191e:	1715ed63          	bltu	a1,a7,1a98 <__divdi3+0x3c8>
    1922:	16a5fb63          	bgeu	a1,a0,1a98 <__divdi3+0x3c8>
    1926:	17f9                	addi	a5,a5,-2
    1928:	95c6                	add	a1,a1,a7
    192a:	8d89                	sub	a1,a1,a0
    192c:	0265d533          	divu	a0,a1,t1
    1930:	06c2                	slli	a3,a3,0x10
    1932:	82c1                	srli	a3,a3,0x10
    1934:	0265f5b3          	remu	a1,a1,t1
    1938:	02a60e33          	mul	t3,a2,a0
    193c:	05c2                	slli	a1,a1,0x10
    193e:	8ecd                	or	a3,a3,a1
    1940:	01c6fb63          	bgeu	a3,t3,1956 <__divdi3+0x286>
    1944:	96c6                	add	a3,a3,a7
    1946:	fff50593          	addi	a1,a0,-1
    194a:	1516e363          	bltu	a3,a7,1a90 <__divdi3+0x3c0>
    194e:	15c6f163          	bgeu	a3,t3,1a90 <__divdi3+0x3c0>
    1952:	1579                	addi	a0,a0,-2
    1954:	96c6                	add	a3,a3,a7
    1956:	01079593          	slli	a1,a5,0x10
    195a:	41c686b3          	sub	a3,a3,t3
    195e:	8dc9                	or	a1,a1,a0
    1960:	bddd                	j	1856 <__divdi3+0x186>
    1962:	1006b793          	sltiu	a5,a3,256
    1966:	0017b793          	seqz	a5,a5
    196a:	078e                	slli	a5,a5,0x3
    196c:	00f6d8b3          	srl	a7,a3,a5
    1970:	0007f717          	auipc	a4,0x7f
    1974:	89070713          	addi	a4,a4,-1904 # 80200 <__clz_tab>
    1978:	9746                	add	a4,a4,a7
    197a:	00074703          	lbu	a4,0(a4)
    197e:	02000313          	li	t1,32
    1982:	973e                	add	a4,a4,a5
    1984:	40e308b3          	sub	a7,t1,a4
    1988:	e6e30fe3          	beq	t1,a4,1806 <__divdi3+0x136>
    198c:	00e65eb3          	srl	t4,a2,a4
    1990:	011696b3          	sll	a3,a3,a7
    1994:	00deeeb3          	or	t4,t4,a3
    1998:	00e5d333          	srl	t1,a1,a4
    199c:	010edf13          	srli	t5,t4,0x10
    19a0:	03e357b3          	divu	a5,t1,t5
    19a4:	010e9e13          	slli	t3,t4,0x10
    19a8:	011595b3          	sll	a1,a1,a7
    19ac:	010e5e13          	srli	t3,t3,0x10
    19b0:	00e55733          	srl	a4,a0,a4
    19b4:	8f4d                	or	a4,a4,a1
    19b6:	01075693          	srli	a3,a4,0x10
    19ba:	01161633          	sll	a2,a2,a7
    19be:	03e37333          	remu	t1,t1,t5
    19c2:	02fe05b3          	mul	a1,t3,a5
    19c6:	0342                	slli	t1,t1,0x10
    19c8:	0066e6b3          	or	a3,a3,t1
    19cc:	00b6fb63          	bgeu	a3,a1,19e2 <__divdi3+0x312>
    19d0:	96f6                	add	a3,a3,t4
    19d2:	fff78313          	addi	t1,a5,-1
    19d6:	0dd6e363          	bltu	a3,t4,1a9c <__divdi3+0x3cc>
    19da:	0cb6f163          	bgeu	a3,a1,1a9c <__divdi3+0x3cc>
    19de:	17f9                	addi	a5,a5,-2
    19e0:	96f6                	add	a3,a3,t4
    19e2:	8e8d                	sub	a3,a3,a1
    19e4:	03e6d5b3          	divu	a1,a3,t5
    19e8:	0742                	slli	a4,a4,0x10
    19ea:	8341                	srli	a4,a4,0x10
    19ec:	03e6f6b3          	remu	a3,a3,t5
    19f0:	02be0333          	mul	t1,t3,a1
    19f4:	06c2                	slli	a3,a3,0x10
    19f6:	8f55                	or	a4,a4,a3
    19f8:	00677b63          	bgeu	a4,t1,1a0e <__divdi3+0x33e>
    19fc:	9776                	add	a4,a4,t4
    19fe:	fff58693          	addi	a3,a1,-1
    1a02:	09d76963          	bltu	a4,t4,1a94 <__divdi3+0x3c4>
    1a06:	08677763          	bgeu	a4,t1,1a94 <__divdi3+0x3c4>
    1a0a:	15f9                	addi	a1,a1,-2
    1a0c:	9776                	add	a4,a4,t4
    1a0e:	07c2                	slli	a5,a5,0x10
    1a10:	6f41                	lui	t5,0x10
    1a12:	8fcd                	or	a5,a5,a1
    1a14:	ffff0693          	addi	a3,t5,-1 # ffff <_etext+0xc13b>
    1a18:	00d7f5b3          	and	a1,a5,a3
    1a1c:	0107de13          	srli	t3,a5,0x10
    1a20:	8ef1                	and	a3,a3,a2
    1a22:	8241                	srli	a2,a2,0x10
    1a24:	02d58eb3          	mul	t4,a1,a3
    1a28:	40670733          	sub	a4,a4,t1
    1a2c:	02de06b3          	mul	a3,t3,a3
    1a30:	010ed313          	srli	t1,t4,0x10
    1a34:	02c585b3          	mul	a1,a1,a2
    1a38:	95b6                	add	a1,a1,a3
    1a3a:	959a                	add	a1,a1,t1
    1a3c:	02ce0e33          	mul	t3,t3,a2
    1a40:	00d5f363          	bgeu	a1,a3,1a46 <__divdi3+0x376>
    1a44:	9e7a                	add	t3,t3,t5
    1a46:	0105d693          	srli	a3,a1,0x10
    1a4a:	96f2                	add	a3,a3,t3
    1a4c:	02d76363          	bltu	a4,a3,1a72 <__divdi3+0x3a2>
    1a50:	00d70563          	beq	a4,a3,1a5a <__divdi3+0x38a>
    1a54:	853e                	mv	a0,a5
    1a56:	4581                	li	a1,0
    1a58:	b3b1                	j	17a4 <__divdi3+0xd4>
    1a5a:	66c1                	lui	a3,0x10
    1a5c:	16fd                	addi	a3,a3,-1 # ffff <_etext+0xc13b>
    1a5e:	00d5f733          	and	a4,a1,a3
    1a62:	0742                	slli	a4,a4,0x10
    1a64:	00defeb3          	and	t4,t4,a3
    1a68:	01151533          	sll	a0,a0,a7
    1a6c:	9776                	add	a4,a4,t4
    1a6e:	fee573e3          	bgeu	a0,a4,1a54 <__divdi3+0x384>
    1a72:	fff78513          	addi	a0,a5,-1
    1a76:	4581                	li	a1,0
    1a78:	b335                	j	17a4 <__divdi3+0xd4>
    1a7a:	010007b7          	lui	a5,0x1000
    1a7e:	02f67763          	bgeu	a2,a5,1aac <__divdi3+0x3dc>
    1a82:	01065693          	srli	a3,a2,0x10
    1a86:	4341                	li	t1,16
    1a88:	b355                	j	182c <__divdi3+0x15c>
    1a8a:	4581                	li	a1,0
    1a8c:	4505                	li	a0,1
    1a8e:	bb19                	j	17a4 <__divdi3+0xd4>
    1a90:	852e                	mv	a0,a1
    1a92:	b5d1                	j	1956 <__divdi3+0x286>
    1a94:	85b6                	mv	a1,a3
    1a96:	bfa5                	j	1a0e <__divdi3+0x33e>
    1a98:	87f2                	mv	a5,t3
    1a9a:	bd41                	j	192a <__divdi3+0x25a>
    1a9c:	879a                	mv	a5,t1
    1a9e:	b791                	j	19e2 <__divdi3+0x312>
    1aa0:	1579                	addi	a0,a0,-2
    1aa2:	97c6                	add	a5,a5,a7
    1aa4:	bbe9                	j	187e <__divdi3+0x1ae>
    1aa6:	1579                	addi	a0,a0,-2
    1aa8:	97c6                	add	a5,a5,a7
    1aaa:	b1e1                	j	1772 <__divdi3+0xa2>
    1aac:	01865693          	srli	a3,a2,0x18
    1ab0:	4361                	li	t1,24
    1ab2:	bbad                	j	182c <__divdi3+0x15c>

00001ab4 <__moddi3>:
    1ab4:	4701                	li	a4,0
    1ab6:	1205c663          	bltz	a1,1be2 <__moddi3+0x12e>
    1aba:	0006d963          	bgez	a3,1acc <__moddi3+0x18>
    1abe:	00c037b3          	snez	a5,a2
    1ac2:	40d006b3          	neg	a3,a3
    1ac6:	8e9d                	sub	a3,a3,a5
    1ac8:	40c00633          	neg	a2,a2
    1acc:	8832                	mv	a6,a2
    1ace:	8e2a                	mv	t3,a0
    1ad0:	832e                	mv	t1,a1
    1ad2:	eed5                	bnez	a3,1b8e <__moddi3+0xda>
    1ad4:	12c5f063          	bgeu	a1,a2,1bf4 <__moddi3+0x140>
    1ad8:	67c1                	lui	a5,0x10
    1ada:	18f66f63          	bltu	a2,a5,1c78 <__moddi3+0x1c4>
    1ade:	010007b7          	lui	a5,0x1000
    1ae2:	46e1                	li	a3,24
    1ae4:	00f67363          	bgeu	a2,a5,1aea <__moddi3+0x36>
    1ae8:	46c1                	li	a3,16
    1aea:	00d658b3          	srl	a7,a2,a3
    1aee:	0007e797          	auipc	a5,0x7e
    1af2:	71278793          	addi	a5,a5,1810 # 80200 <__clz_tab>
    1af6:	97c6                	add	a5,a5,a7
    1af8:	0007c783          	lbu	a5,0(a5)
    1afc:	02000e93          	li	t4,32
    1b00:	97b6                	add	a5,a5,a3
    1b02:	40fe88b3          	sub	a7,t4,a5
    1b06:	00fe8c63          	beq	t4,a5,1b1e <__moddi3+0x6a>
    1b0a:	01159333          	sll	t1,a1,a7
    1b0e:	00f557b3          	srl	a5,a0,a5
    1b12:	01161833          	sll	a6,a2,a7
    1b16:	0067e333          	or	t1,a5,t1
    1b1a:	01151e33          	sll	t3,a0,a7
    1b1e:	01085613          	srli	a2,a6,0x10
    1b22:	02c356b3          	divu	a3,t1,a2
    1b26:	01081593          	slli	a1,a6,0x10
    1b2a:	81c1                	srli	a1,a1,0x10
    1b2c:	010e5793          	srli	a5,t3,0x10
    1b30:	02c37333          	remu	t1,t1,a2
    1b34:	02b686b3          	mul	a3,a3,a1
    1b38:	0342                	slli	t1,t1,0x10
    1b3a:	0067e7b3          	or	a5,a5,t1
    1b3e:	00d7f763          	bgeu	a5,a3,1b4c <__moddi3+0x98>
    1b42:	97c2                	add	a5,a5,a6
    1b44:	0107e463          	bltu	a5,a6,1b4c <__moddi3+0x98>
    1b48:	32d7e263          	bltu	a5,a3,1e6c <__moddi3+0x3b8>
    1b4c:	8f95                	sub	a5,a5,a3
    1b4e:	02c7d6b3          	divu	a3,a5,a2
    1b52:	010e1513          	slli	a0,t3,0x10
    1b56:	8141                	srli	a0,a0,0x10
    1b58:	02c7f7b3          	remu	a5,a5,a2
    1b5c:	02b686b3          	mul	a3,a3,a1
    1b60:	07c2                	slli	a5,a5,0x10
    1b62:	8d5d                	or	a0,a0,a5
    1b64:	00d57863          	bgeu	a0,a3,1b74 <__moddi3+0xc0>
    1b68:	9542                	add	a0,a0,a6
    1b6a:	01056563          	bltu	a0,a6,1b74 <__moddi3+0xc0>
    1b6e:	00d57363          	bgeu	a0,a3,1b74 <__moddi3+0xc0>
    1b72:	9542                	add	a0,a0,a6
    1b74:	8d15                	sub	a0,a0,a3
    1b76:	01155533          	srl	a0,a0,a7
    1b7a:	4581                	li	a1,0
    1b7c:	cb01                	beqz	a4,1b8c <__moddi3+0xd8>
    1b7e:	00a037b3          	snez	a5,a0
    1b82:	40b005b3          	neg	a1,a1
    1b86:	8d9d                	sub	a1,a1,a5
    1b88:	40a00533          	neg	a0,a0
    1b8c:	8082                	ret
    1b8e:	832a                	mv	t1,a0
    1b90:	fed5e6e3          	bltu	a1,a3,1b7c <__moddi3+0xc8>
    1b94:	67c1                	lui	a5,0x10
    1b96:	16f6ef63          	bltu	a3,a5,1d14 <__moddi3+0x260>
    1b9a:	01000837          	lui	a6,0x1000
    1b9e:	47e1                	li	a5,24
    1ba0:	0106f363          	bgeu	a3,a6,1ba6 <__moddi3+0xf2>
    1ba4:	47c1                	li	a5,16
    1ba6:	00f6d8b3          	srl	a7,a3,a5
    1baa:	0007e817          	auipc	a6,0x7e
    1bae:	65680813          	addi	a6,a6,1622 # 80200 <__clz_tab>
    1bb2:	9846                	add	a6,a6,a7
    1bb4:	00084803          	lbu	a6,0(a6)
    1bb8:	02000e13          	li	t3,32
    1bbc:	983e                	add	a6,a6,a5
    1bbe:	410e08b3          	sub	a7,t3,a6
    1bc2:	170e1e63          	bne	t3,a6,1d3e <__moddi3+0x28a>
    1bc6:	00b6e463          	bltu	a3,a1,1bce <__moddi3+0x11a>
    1bca:	00c56a63          	bltu	a0,a2,1bde <__moddi3+0x12a>
    1bce:	40c50333          	sub	t1,a0,a2
    1bd2:	40d586b3          	sub	a3,a1,a3
    1bd6:	006535b3          	sltu	a1,a0,t1
    1bda:	40b685b3          	sub	a1,a3,a1
    1bde:	851a                	mv	a0,t1
    1be0:	bf71                	j	1b7c <__moddi3+0xc8>
    1be2:	00a037b3          	snez	a5,a0
    1be6:	40b005b3          	neg	a1,a1
    1bea:	8d9d                	sub	a1,a1,a5
    1bec:	40a00533          	neg	a0,a0
    1bf0:	577d                	li	a4,-1
    1bf2:	b5e1                	j	1aba <__moddi3+0x6>
    1bf4:	ca41                	beqz	a2,1c84 <__moddi3+0x1d0>
    1bf6:	67c1                	lui	a5,0x10
    1bf8:	24f67e63          	bgeu	a2,a5,1e54 <__moddi3+0x3a0>
    1bfc:	10063693          	sltiu	a3,a2,256
    1c00:	0016b693          	seqz	a3,a3
    1c04:	068e                	slli	a3,a3,0x3
    1c06:	00d658b3          	srl	a7,a2,a3
    1c0a:	0007e797          	auipc	a5,0x7e
    1c0e:	5f678793          	addi	a5,a5,1526 # 80200 <__clz_tab>
    1c12:	97c6                	add	a5,a5,a7
    1c14:	0007c783          	lbu	a5,0(a5)
    1c18:	02000313          	li	t1,32
    1c1c:	97b6                	add	a5,a5,a3
    1c1e:	40f308b3          	sub	a7,t1,a5
    1c22:	08f31163          	bne	t1,a5,1ca4 <__moddi3+0x1f0>
    1c26:	40c586b3          	sub	a3,a1,a2
    1c2a:	01065313          	srli	t1,a2,0x10
    1c2e:	0642                	slli	a2,a2,0x10
    1c30:	8241                	srli	a2,a2,0x10
    1c32:	0266d5b3          	divu	a1,a3,t1
    1c36:	010e5793          	srli	a5,t3,0x10
    1c3a:	0266f6b3          	remu	a3,a3,t1
    1c3e:	02c585b3          	mul	a1,a1,a2
    1c42:	06c2                	slli	a3,a3,0x10
    1c44:	8fd5                	or	a5,a5,a3
    1c46:	00b7f863          	bgeu	a5,a1,1c56 <__moddi3+0x1a2>
    1c4a:	97c2                	add	a5,a5,a6
    1c4c:	0107e563          	bltu	a5,a6,1c56 <__moddi3+0x1a2>
    1c50:	00b7f363          	bgeu	a5,a1,1c56 <__moddi3+0x1a2>
    1c54:	97c2                	add	a5,a5,a6
    1c56:	8f8d                	sub	a5,a5,a1
    1c58:	0267d6b3          	divu	a3,a5,t1
    1c5c:	0e42                	slli	t3,t3,0x10
    1c5e:	010e5e13          	srli	t3,t3,0x10
    1c62:	0267f7b3          	remu	a5,a5,t1
    1c66:	02c686b3          	mul	a3,a3,a2
    1c6a:	01079513          	slli	a0,a5,0x10
    1c6e:	00ae6533          	or	a0,t3,a0
    1c72:	f0d571e3          	bgeu	a0,a3,1b74 <__moddi3+0xc0>
    1c76:	bdcd                	j	1b68 <__moddi3+0xb4>
    1c78:	10063693          	sltiu	a3,a2,256
    1c7c:	0016b693          	seqz	a3,a3
    1c80:	068e                	slli	a3,a3,0x3
    1c82:	b5a5                	j	1aea <__moddi3+0x36>
    1c84:	4881                	li	a7,0
    1c86:	0007e797          	auipc	a5,0x7e
    1c8a:	57a78793          	addi	a5,a5,1402 # 80200 <__clz_tab>
    1c8e:	97c6                	add	a5,a5,a7
    1c90:	0007c783          	lbu	a5,0(a5)
    1c94:	4681                	li	a3,0
    1c96:	02000313          	li	t1,32
    1c9a:	97b6                	add	a5,a5,a3
    1c9c:	40f308b3          	sub	a7,t1,a5
    1ca0:	f8f303e3          	beq	t1,a5,1c26 <__moddi3+0x172>
    1ca4:	01161833          	sll	a6,a2,a7
    1ca8:	00f5deb3          	srl	t4,a1,a5
    1cac:	01085313          	srli	t1,a6,0x10
    1cb0:	026edf33          	divu	t5,t4,t1
    1cb4:	01081613          	slli	a2,a6,0x10
    1cb8:	011595b3          	sll	a1,a1,a7
    1cbc:	00f556b3          	srl	a3,a0,a5
    1cc0:	8241                	srli	a2,a2,0x10
    1cc2:	8ecd                	or	a3,a3,a1
    1cc4:	0106d793          	srli	a5,a3,0x10
    1cc8:	01151e33          	sll	t3,a0,a7
    1ccc:	026efeb3          	remu	t4,t4,t1
    1cd0:	02cf05b3          	mul	a1,t5,a2
    1cd4:	0ec2                	slli	t4,t4,0x10
    1cd6:	01d7e7b3          	or	a5,a5,t4
    1cda:	00b7f863          	bgeu	a5,a1,1cea <__moddi3+0x236>
    1cde:	97c2                	add	a5,a5,a6
    1ce0:	0107e563          	bltu	a5,a6,1cea <__moddi3+0x236>
    1ce4:	00b7f363          	bgeu	a5,a1,1cea <__moddi3+0x236>
    1ce8:	97c2                	add	a5,a5,a6
    1cea:	8f8d                	sub	a5,a5,a1
    1cec:	0267d5b3          	divu	a1,a5,t1
    1cf0:	06c2                	slli	a3,a3,0x10
    1cf2:	82c1                	srli	a3,a3,0x10
    1cf4:	0267f7b3          	remu	a5,a5,t1
    1cf8:	02c585b3          	mul	a1,a1,a2
    1cfc:	07c2                	slli	a5,a5,0x10
    1cfe:	8edd                	or	a3,a3,a5
    1d00:	00b6f863          	bgeu	a3,a1,1d10 <__moddi3+0x25c>
    1d04:	96c2                	add	a3,a3,a6
    1d06:	0106e563          	bltu	a3,a6,1d10 <__moddi3+0x25c>
    1d0a:	00b6f363          	bgeu	a3,a1,1d10 <__moddi3+0x25c>
    1d0e:	96c2                	add	a3,a3,a6
    1d10:	8e8d                	sub	a3,a3,a1
    1d12:	b705                	j	1c32 <__moddi3+0x17e>
    1d14:	1006b793          	sltiu	a5,a3,256
    1d18:	0017b793          	seqz	a5,a5
    1d1c:	078e                	slli	a5,a5,0x3
    1d1e:	00f6d8b3          	srl	a7,a3,a5
    1d22:	0007e817          	auipc	a6,0x7e
    1d26:	4de80813          	addi	a6,a6,1246 # 80200 <__clz_tab>
    1d2a:	9846                	add	a6,a6,a7
    1d2c:	00084803          	lbu	a6,0(a6)
    1d30:	02000e13          	li	t3,32
    1d34:	983e                	add	a6,a6,a5
    1d36:	410e08b3          	sub	a7,t3,a6
    1d3a:	e90e06e3          	beq	t3,a6,1bc6 <__moddi3+0x112>
    1d3e:	011696b3          	sll	a3,a3,a7
    1d42:	01065333          	srl	t1,a2,a6
    1d46:	00d36333          	or	t1,t1,a3
    1d4a:	0105deb3          	srl	t4,a1,a6
    1d4e:	01035f93          	srli	t6,t1,0x10
    1d52:	03fed7b3          	divu	a5,t4,t6
    1d56:	01031f13          	slli	t5,t1,0x10
    1d5a:	010f5f13          	srli	t5,t5,0x10
    1d5e:	010556b3          	srl	a3,a0,a6
    1d62:	01151e33          	sll	t3,a0,a7
    1d66:	011595b3          	sll	a1,a1,a7
    1d6a:	8dd5                	or	a1,a1,a3
    1d6c:	0105d693          	srli	a3,a1,0x10
    1d70:	01161633          	sll	a2,a2,a7
    1d74:	03fefeb3          	remu	t4,t4,t6
    1d78:	02ff0533          	mul	a0,t5,a5
    1d7c:	0ec2                	slli	t4,t4,0x10
    1d7e:	01d6e6b3          	or	a3,a3,t4
    1d82:	00a6fb63          	bgeu	a3,a0,1d98 <__moddi3+0x2e4>
    1d86:	969a                	add	a3,a3,t1
    1d88:	fff78e93          	addi	t4,a5,-1
    1d8c:	0c66ee63          	bltu	a3,t1,1e68 <__moddi3+0x3b4>
    1d90:	0ca6fc63          	bgeu	a3,a0,1e68 <__moddi3+0x3b4>
    1d94:	17f9                	addi	a5,a5,-2
    1d96:	969a                	add	a3,a3,t1
    1d98:	8e89                	sub	a3,a3,a0
    1d9a:	03f6d533          	divu	a0,a3,t6
    1d9e:	05c2                	slli	a1,a1,0x10
    1da0:	81c1                	srli	a1,a1,0x10
    1da2:	03f6f6b3          	remu	a3,a3,t6
    1da6:	02af0f33          	mul	t5,t5,a0
    1daa:	06c2                	slli	a3,a3,0x10
    1dac:	8dd5                	or	a1,a1,a3
    1dae:	01e5fb63          	bgeu	a1,t5,1dc4 <__moddi3+0x310>
    1db2:	959a                	add	a1,a1,t1
    1db4:	fff50693          	addi	a3,a0,-1
    1db8:	0a65e663          	bltu	a1,t1,1e64 <__moddi3+0x3b0>
    1dbc:	0be5f463          	bgeu	a1,t5,1e64 <__moddi3+0x3b0>
    1dc0:	1579                	addi	a0,a0,-2
    1dc2:	959a                	add	a1,a1,t1
    1dc4:	01079693          	slli	a3,a5,0x10
    1dc8:	63c1                	lui	t2,0x10
    1dca:	8ec9                	or	a3,a3,a0
    1dcc:	fff38513          	addi	a0,t2,-1 # ffff <_etext+0xc13b>
    1dd0:	00a6feb3          	and	t4,a3,a0
    1dd4:	01065293          	srli	t0,a2,0x10
    1dd8:	82c1                	srli	a3,a3,0x10
    1dda:	8d71                	and	a0,a0,a2
    1ddc:	02ae8fb3          	mul	t6,t4,a0
    1de0:	41e585b3          	sub	a1,a1,t5
    1de4:	02a68533          	mul	a0,a3,a0
    1de8:	010fd793          	srli	a5,t6,0x10
    1dec:	025e8eb3          	mul	t4,t4,t0
    1df0:	9eaa                	add	t4,t4,a0
    1df2:	97f6                	add	a5,a5,t4
    1df4:	025686b3          	mul	a3,a3,t0
    1df8:	00a7f363          	bgeu	a5,a0,1dfe <__moddi3+0x34a>
    1dfc:	969e                	add	a3,a3,t2
    1dfe:	6f41                	lui	t5,0x10
    1e00:	1f7d                	addi	t5,t5,-1 # ffff <_etext+0xc13b>
    1e02:	01e7f533          	and	a0,a5,t5
    1e06:	0107de93          	srli	t4,a5,0x10
    1e0a:	0542                	slli	a0,a0,0x10
    1e0c:	01efffb3          	and	t6,t6,t5
    1e10:	00de87b3          	add	a5,t4,a3
    1e14:	957e                	add	a0,a0,t6
    1e16:	02f5e663          	bltu	a1,a5,1e42 <__moddi3+0x38e>
    1e1a:	02f58263          	beq	a1,a5,1e3e <__moddi3+0x38a>
    1e1e:	40ae0533          	sub	a0,t3,a0
    1e22:	00ae3e33          	sltu	t3,t3,a0
    1e26:	8d9d                	sub	a1,a1,a5
    1e28:	41c585b3          	sub	a1,a1,t3
    1e2c:	01059833          	sll	a6,a1,a6
    1e30:	01155533          	srl	a0,a0,a7
    1e34:	00a86533          	or	a0,a6,a0
    1e38:	0115d5b3          	srl	a1,a1,a7
    1e3c:	b381                	j	1b7c <__moddi3+0xc8>
    1e3e:	feae70e3          	bgeu	t3,a0,1e1e <__moddi3+0x36a>
    1e42:	40c50633          	sub	a2,a0,a2
    1e46:	00c53533          	sltu	a0,a0,a2
    1e4a:	932a                	add	t1,t1,a0
    1e4c:	406787b3          	sub	a5,a5,t1
    1e50:	8532                	mv	a0,a2
    1e52:	b7f1                	j	1e1e <__moddi3+0x36a>
    1e54:	010007b7          	lui	a5,0x1000
    1e58:	00f67c63          	bgeu	a2,a5,1e70 <__moddi3+0x3bc>
    1e5c:	01065893          	srli	a7,a2,0x10
    1e60:	46c1                	li	a3,16
    1e62:	b365                	j	1c0a <__moddi3+0x156>
    1e64:	8536                	mv	a0,a3
    1e66:	bfb9                	j	1dc4 <__moddi3+0x310>
    1e68:	87f6                	mv	a5,t4
    1e6a:	b73d                	j	1d98 <__moddi3+0x2e4>
    1e6c:	97c2                	add	a5,a5,a6
    1e6e:	b9f9                	j	1b4c <__moddi3+0x98>
    1e70:	01865893          	srli	a7,a2,0x18
    1e74:	46e1                	li	a3,24
    1e76:	bb51                	j	1c0a <__moddi3+0x156>

00001e78 <__udivdi3>:
    1e78:	8832                	mv	a6,a2
    1e7a:	88aa                	mv	a7,a0
    1e7c:	872e                	mv	a4,a1
    1e7e:	ead5                	bnez	a3,1f32 <__udivdi3+0xba>
    1e80:	0ec5ff63          	bgeu	a1,a2,1f7e <__udivdi3+0x106>
    1e84:	67c1                	lui	a5,0x10
    1e86:	18f66c63          	bltu	a2,a5,201e <__udivdi3+0x1a6>
    1e8a:	010007b7          	lui	a5,0x1000
    1e8e:	46e1                	li	a3,24
    1e90:	00f67363          	bgeu	a2,a5,1e96 <__udivdi3+0x1e>
    1e94:	46c1                	li	a3,16
    1e96:	00d65333          	srl	t1,a2,a3
    1e9a:	0007e797          	auipc	a5,0x7e
    1e9e:	36678793          	addi	a5,a5,870 # 80200 <__clz_tab>
    1ea2:	979a                	add	a5,a5,t1
    1ea4:	0007c783          	lbu	a5,0(a5)
    1ea8:	02000313          	li	t1,32
    1eac:	97b6                	add	a5,a5,a3
    1eae:	40f306b3          	sub	a3,t1,a5
    1eb2:	00f30b63          	beq	t1,a5,1ec8 <__udivdi3+0x50>
    1eb6:	00d59733          	sll	a4,a1,a3
    1eba:	00f557b3          	srl	a5,a0,a5
    1ebe:	00d61833          	sll	a6,a2,a3
    1ec2:	8f5d                	or	a4,a4,a5
    1ec4:	00d518b3          	sll	a7,a0,a3
    1ec8:	01085613          	srli	a2,a6,0x10
    1ecc:	02c75533          	divu	a0,a4,a2
    1ed0:	01081693          	slli	a3,a6,0x10
    1ed4:	82c1                	srli	a3,a3,0x10
    1ed6:	0108d793          	srli	a5,a7,0x10
    1eda:	02c77733          	remu	a4,a4,a2
    1ede:	02a685b3          	mul	a1,a3,a0
    1ee2:	0742                	slli	a4,a4,0x10
    1ee4:	8fd9                	or	a5,a5,a4
    1ee6:	00b7fa63          	bgeu	a5,a1,1efa <__udivdi3+0x82>
    1eea:	97c2                	add	a5,a5,a6
    1eec:	fff50713          	addi	a4,a0,-1
    1ef0:	0107e463          	bltu	a5,a6,1ef8 <__udivdi3+0x80>
    1ef4:	30b7ef63          	bltu	a5,a1,2212 <__udivdi3+0x39a>
    1ef8:	853a                	mv	a0,a4
    1efa:	8f8d                	sub	a5,a5,a1
    1efc:	02c7d733          	divu	a4,a5,a2
    1f00:	08c2                	slli	a7,a7,0x10
    1f02:	0108d893          	srli	a7,a7,0x10
    1f06:	02c7f7b3          	remu	a5,a5,a2
    1f0a:	02e686b3          	mul	a3,a3,a4
    1f0e:	07c2                	slli	a5,a5,0x10
    1f10:	00f8e8b3          	or	a7,a7,a5
    1f14:	00d8fb63          	bgeu	a7,a3,1f2a <__udivdi3+0xb2>
    1f18:	98c2                	add	a7,a7,a6
    1f1a:	fff70793          	addi	a5,a4,-1
    1f1e:	0108e563          	bltu	a7,a6,1f28 <__udivdi3+0xb0>
    1f22:	1779                	addi	a4,a4,-2
    1f24:	00d8e363          	bltu	a7,a3,1f2a <__udivdi3+0xb2>
    1f28:	873e                	mv	a4,a5
    1f2a:	0542                	slli	a0,a0,0x10
    1f2c:	8d59                	or	a0,a0,a4
    1f2e:	4581                	li	a1,0
    1f30:	8082                	ret
    1f32:	00d5f563          	bgeu	a1,a3,1f3c <__udivdi3+0xc4>
    1f36:	4581                	li	a1,0
    1f38:	4501                	li	a0,0
    1f3a:	8082                	ret
    1f3c:	67c1                	lui	a5,0x10
    1f3e:	18f6e863          	bltu	a3,a5,20ce <__udivdi3+0x256>
    1f42:	01000737          	lui	a4,0x1000
    1f46:	47e1                	li	a5,24
    1f48:	00e6f363          	bgeu	a3,a4,1f4e <__udivdi3+0xd6>
    1f4c:	47c1                	li	a5,16
    1f4e:	00f6d833          	srl	a6,a3,a5
    1f52:	0007e717          	auipc	a4,0x7e
    1f56:	2ae70713          	addi	a4,a4,686 # 80200 <__clz_tab>
    1f5a:	9742                	add	a4,a4,a6
    1f5c:	00074703          	lbu	a4,0(a4)
    1f60:	02000893          	li	a7,32
    1f64:	973e                	add	a4,a4,a5
    1f66:	40e88833          	sub	a6,a7,a4
    1f6a:	18e89763          	bne	a7,a4,20f8 <__udivdi3+0x280>
    1f6e:	28b6e463          	bltu	a3,a1,21f6 <__udivdi3+0x37e>
    1f72:	00c53533          	sltu	a0,a0,a2
    1f76:	00153513          	seqz	a0,a0
    1f7a:	4581                	li	a1,0
    1f7c:	8082                	ret
    1f7e:	c655                	beqz	a2,202a <__udivdi3+0x1b2>
    1f80:	67c1                	lui	a5,0x10
    1f82:	26f67263          	bgeu	a2,a5,21e6 <__udivdi3+0x36e>
    1f86:	10063713          	sltiu	a4,a2,256
    1f8a:	00173713          	seqz	a4,a4
    1f8e:	070e                	slli	a4,a4,0x3
    1f90:	00e656b3          	srl	a3,a2,a4
    1f94:	0007e797          	auipc	a5,0x7e
    1f98:	26c78793          	addi	a5,a5,620 # 80200 <__clz_tab>
    1f9c:	97b6                	add	a5,a5,a3
    1f9e:	0007c783          	lbu	a5,0(a5)
    1fa2:	02000693          	li	a3,32
    1fa6:	97ba                	add	a5,a5,a4
    1fa8:	40f68eb3          	sub	t4,a3,a5
    1fac:	08f69f63          	bne	a3,a5,204a <__udivdi3+0x1d2>
    1fb0:	40c587b3          	sub	a5,a1,a2
    1fb4:	01065693          	srli	a3,a2,0x10
    1fb8:	0642                	slli	a2,a2,0x10
    1fba:	8241                	srli	a2,a2,0x10
    1fbc:	4585                	li	a1,1
    1fbe:	02d7d533          	divu	a0,a5,a3
    1fc2:	0108d713          	srli	a4,a7,0x10
    1fc6:	02d7f7b3          	remu	a5,a5,a3
    1fca:	02c50333          	mul	t1,a0,a2
    1fce:	07c2                	slli	a5,a5,0x10
    1fd0:	8fd9                	or	a5,a5,a4
    1fd2:	0067fa63          	bgeu	a5,t1,1fe6 <__udivdi3+0x16e>
    1fd6:	97c2                	add	a5,a5,a6
    1fd8:	fff50713          	addi	a4,a0,-1
    1fdc:	0107e463          	bltu	a5,a6,1fe4 <__udivdi3+0x16c>
    1fe0:	2267e663          	bltu	a5,t1,220c <__udivdi3+0x394>
    1fe4:	853a                	mv	a0,a4
    1fe6:	406787b3          	sub	a5,a5,t1
    1fea:	02d7d733          	divu	a4,a5,a3
    1fee:	08c2                	slli	a7,a7,0x10
    1ff0:	0108d893          	srli	a7,a7,0x10
    1ff4:	02d7f7b3          	remu	a5,a5,a3
    1ff8:	02c70633          	mul	a2,a4,a2
    1ffc:	07c2                	slli	a5,a5,0x10
    1ffe:	00f8e8b3          	or	a7,a7,a5
    2002:	00c8fb63          	bgeu	a7,a2,2018 <__udivdi3+0x1a0>
    2006:	98c2                	add	a7,a7,a6
    2008:	fff70793          	addi	a5,a4,-1
    200c:	0108e563          	bltu	a7,a6,2016 <__udivdi3+0x19e>
    2010:	1779                	addi	a4,a4,-2
    2012:	00c8e363          	bltu	a7,a2,2018 <__udivdi3+0x1a0>
    2016:	873e                	mv	a4,a5
    2018:	0542                	slli	a0,a0,0x10
    201a:	8d59                	or	a0,a0,a4
    201c:	8082                	ret
    201e:	10063693          	sltiu	a3,a2,256
    2022:	0016b693          	seqz	a3,a3
    2026:	068e                	slli	a3,a3,0x3
    2028:	b5bd                	j	1e96 <__udivdi3+0x1e>
    202a:	4681                	li	a3,0
    202c:	0007e797          	auipc	a5,0x7e
    2030:	1d478793          	addi	a5,a5,468 # 80200 <__clz_tab>
    2034:	97b6                	add	a5,a5,a3
    2036:	0007c783          	lbu	a5,0(a5)
    203a:	4701                	li	a4,0
    203c:	02000693          	li	a3,32
    2040:	97ba                	add	a5,a5,a4
    2042:	40f68eb3          	sub	t4,a3,a5
    2046:	f6f685e3          	beq	a3,a5,1fb0 <__udivdi3+0x138>
    204a:	01d61833          	sll	a6,a2,t4
    204e:	00f5d333          	srl	t1,a1,a5
    2052:	01085693          	srli	a3,a6,0x10
    2056:	02d35e33          	divu	t3,t1,a3
    205a:	01081613          	slli	a2,a6,0x10
    205e:	01d595b3          	sll	a1,a1,t4
    2062:	8241                	srli	a2,a2,0x10
    2064:	00f557b3          	srl	a5,a0,a5
    2068:	8fcd                	or	a5,a5,a1
    206a:	0107d713          	srli	a4,a5,0x10
    206e:	01d518b3          	sll	a7,a0,t4
    2072:	02d37333          	remu	t1,t1,a3
    2076:	03c605b3          	mul	a1,a2,t3
    207a:	0342                	slli	t1,t1,0x10
    207c:	00676733          	or	a4,a4,t1
    2080:	00b77b63          	bgeu	a4,a1,2096 <__udivdi3+0x21e>
    2084:	9742                	add	a4,a4,a6
    2086:	fffe0513          	addi	a0,t3,-1
    208a:	17076d63          	bltu	a4,a6,2204 <__udivdi3+0x38c>
    208e:	16b77b63          	bgeu	a4,a1,2204 <__udivdi3+0x38c>
    2092:	1e79                	addi	t3,t3,-2
    2094:	9742                	add	a4,a4,a6
    2096:	8f0d                	sub	a4,a4,a1
    2098:	02d75533          	divu	a0,a4,a3
    209c:	07c2                	slli	a5,a5,0x10
    209e:	83c1                	srli	a5,a5,0x10
    20a0:	02d77733          	remu	a4,a4,a3
    20a4:	02a60333          	mul	t1,a2,a0
    20a8:	0742                	slli	a4,a4,0x10
    20aa:	8fd9                	or	a5,a5,a4
    20ac:	0067fb63          	bgeu	a5,t1,20c2 <__udivdi3+0x24a>
    20b0:	97c2                	add	a5,a5,a6
    20b2:	fff50713          	addi	a4,a0,-1
    20b6:	1507e363          	bltu	a5,a6,21fc <__udivdi3+0x384>
    20ba:	1467f163          	bgeu	a5,t1,21fc <__udivdi3+0x384>
    20be:	1579                	addi	a0,a0,-2
    20c0:	97c2                	add	a5,a5,a6
    20c2:	010e1593          	slli	a1,t3,0x10
    20c6:	406787b3          	sub	a5,a5,t1
    20ca:	8dc9                	or	a1,a1,a0
    20cc:	bdcd                	j	1fbe <__udivdi3+0x146>
    20ce:	1006b793          	sltiu	a5,a3,256
    20d2:	0017b793          	seqz	a5,a5
    20d6:	078e                	slli	a5,a5,0x3
    20d8:	00f6d833          	srl	a6,a3,a5
    20dc:	0007e717          	auipc	a4,0x7e
    20e0:	12470713          	addi	a4,a4,292 # 80200 <__clz_tab>
    20e4:	9742                	add	a4,a4,a6
    20e6:	00074703          	lbu	a4,0(a4)
    20ea:	02000893          	li	a7,32
    20ee:	973e                	add	a4,a4,a5
    20f0:	40e88833          	sub	a6,a7,a4
    20f4:	e6e88de3          	beq	a7,a4,1f6e <__udivdi3+0xf6>
    20f8:	00e65e33          	srl	t3,a2,a4
    20fc:	010696b3          	sll	a3,a3,a6
    2100:	00de6e33          	or	t3,t3,a3
    2104:	00e5d8b3          	srl	a7,a1,a4
    2108:	010e5e93          	srli	t4,t3,0x10
    210c:	03d8d7b3          	divu	a5,a7,t4
    2110:	010e1313          	slli	t1,t3,0x10
    2114:	010595b3          	sll	a1,a1,a6
    2118:	01035313          	srli	t1,t1,0x10
    211c:	00e55733          	srl	a4,a0,a4
    2120:	8f4d                	or	a4,a4,a1
    2122:	01075693          	srli	a3,a4,0x10
    2126:	01061633          	sll	a2,a2,a6
    212a:	03d8f8b3          	remu	a7,a7,t4
    212e:	02f305b3          	mul	a1,t1,a5
    2132:	08c2                	slli	a7,a7,0x10
    2134:	0116e6b3          	or	a3,a3,a7
    2138:	00b6fb63          	bgeu	a3,a1,214e <__udivdi3+0x2d6>
    213c:	96f2                	add	a3,a3,t3
    213e:	fff78893          	addi	a7,a5,-1
    2142:	0dc6e363          	bltu	a3,t3,2208 <__udivdi3+0x390>
    2146:	0cb6f163          	bgeu	a3,a1,2208 <__udivdi3+0x390>
    214a:	17f9                	addi	a5,a5,-2
    214c:	96f2                	add	a3,a3,t3
    214e:	8e8d                	sub	a3,a3,a1
    2150:	03d6d5b3          	divu	a1,a3,t4
    2154:	0742                	slli	a4,a4,0x10
    2156:	8341                	srli	a4,a4,0x10
    2158:	03d6f6b3          	remu	a3,a3,t4
    215c:	02b308b3          	mul	a7,t1,a1
    2160:	06c2                	slli	a3,a3,0x10
    2162:	8f55                	or	a4,a4,a3
    2164:	01177b63          	bgeu	a4,a7,217a <__udivdi3+0x302>
    2168:	9772                	add	a4,a4,t3
    216a:	fff58693          	addi	a3,a1,-1
    216e:	09c76963          	bltu	a4,t3,2200 <__udivdi3+0x388>
    2172:	09177763          	bgeu	a4,a7,2200 <__udivdi3+0x388>
    2176:	15f9                	addi	a1,a1,-2
    2178:	9772                	add	a4,a4,t3
    217a:	07c2                	slli	a5,a5,0x10
    217c:	6ec1                	lui	t4,0x10
    217e:	8fcd                	or	a5,a5,a1
    2180:	fffe8693          	addi	a3,t4,-1 # ffff <_etext+0xc13b>
    2184:	00d7f5b3          	and	a1,a5,a3
    2188:	0107d313          	srli	t1,a5,0x10
    218c:	8ef1                	and	a3,a3,a2
    218e:	8241                	srli	a2,a2,0x10
    2190:	02d58e33          	mul	t3,a1,a3
    2194:	41170733          	sub	a4,a4,a7
    2198:	02d306b3          	mul	a3,t1,a3
    219c:	010e5893          	srli	a7,t3,0x10
    21a0:	02c585b3          	mul	a1,a1,a2
    21a4:	95b6                	add	a1,a1,a3
    21a6:	95c6                	add	a1,a1,a7
    21a8:	02c30333          	mul	t1,t1,a2
    21ac:	00d5f363          	bgeu	a1,a3,21b2 <__udivdi3+0x33a>
    21b0:	9376                	add	t1,t1,t4
    21b2:	0105d693          	srli	a3,a1,0x10
    21b6:	969a                	add	a3,a3,t1
    21b8:	02d76363          	bltu	a4,a3,21de <__udivdi3+0x366>
    21bc:	00d70563          	beq	a4,a3,21c6 <__udivdi3+0x34e>
    21c0:	853e                	mv	a0,a5
    21c2:	4581                	li	a1,0
    21c4:	8082                	ret
    21c6:	66c1                	lui	a3,0x10
    21c8:	16fd                	addi	a3,a3,-1 # ffff <_etext+0xc13b>
    21ca:	00d5f733          	and	a4,a1,a3
    21ce:	0742                	slli	a4,a4,0x10
    21d0:	00de7e33          	and	t3,t3,a3
    21d4:	01051533          	sll	a0,a0,a6
    21d8:	9772                	add	a4,a4,t3
    21da:	fee573e3          	bgeu	a0,a4,21c0 <__udivdi3+0x348>
    21de:	fff78513          	addi	a0,a5,-1
    21e2:	4581                	li	a1,0
    21e4:	8082                	ret
    21e6:	010007b7          	lui	a5,0x1000
    21ea:	02f67763          	bgeu	a2,a5,2218 <__udivdi3+0x3a0>
    21ee:	01065693          	srli	a3,a2,0x10
    21f2:	4741                	li	a4,16
    21f4:	b345                	j	1f94 <__udivdi3+0x11c>
    21f6:	4581                	li	a1,0
    21f8:	4505                	li	a0,1
    21fa:	8082                	ret
    21fc:	853a                	mv	a0,a4
    21fe:	b5d1                	j	20c2 <__udivdi3+0x24a>
    2200:	85b6                	mv	a1,a3
    2202:	bfa5                	j	217a <__udivdi3+0x302>
    2204:	8e2a                	mv	t3,a0
    2206:	bd41                	j	2096 <__udivdi3+0x21e>
    2208:	87c6                	mv	a5,a7
    220a:	b791                	j	214e <__udivdi3+0x2d6>
    220c:	1579                	addi	a0,a0,-2
    220e:	97c2                	add	a5,a5,a6
    2210:	bbd9                	j	1fe6 <__udivdi3+0x16e>
    2212:	1579                	addi	a0,a0,-2
    2214:	97c2                	add	a5,a5,a6
    2216:	b1d5                	j	1efa <__udivdi3+0x82>
    2218:	01865693          	srli	a3,a2,0x18
    221c:	4761                	li	a4,24
    221e:	bb9d                	j	1f94 <__udivdi3+0x11c>

00002220 <__umoddi3>:
    2220:	8832                	mv	a6,a2
    2222:	88aa                	mv	a7,a0
    2224:	87ae                	mv	a5,a1
    2226:	872e                	mv	a4,a1
    2228:	e6cd                	bnez	a3,22d2 <__umoddi3+0xb2>
    222a:	0ec5ff63          	bgeu	a1,a2,2328 <__umoddi3+0x108>
    222e:	67c1                	lui	a5,0x10
    2230:	18f66263          	bltu	a2,a5,23b4 <__umoddi3+0x194>
    2234:	010007b7          	lui	a5,0x1000
    2238:	46e1                	li	a3,24
    223a:	00f67363          	bgeu	a2,a5,2240 <__umoddi3+0x20>
    223e:	46c1                	li	a3,16
    2240:	00d65333          	srl	t1,a2,a3
    2244:	0007e797          	auipc	a5,0x7e
    2248:	fbc78793          	addi	a5,a5,-68 # 80200 <__clz_tab>
    224c:	979a                	add	a5,a5,t1
    224e:	0007c783          	lbu	a5,0(a5)
    2252:	02000313          	li	t1,32
    2256:	97b6                	add	a5,a5,a3
    2258:	40f306b3          	sub	a3,t1,a5
    225c:	00f30b63          	beq	t1,a5,2272 <__umoddi3+0x52>
    2260:	00d59733          	sll	a4,a1,a3
    2264:	00f557b3          	srl	a5,a0,a5
    2268:	00d61833          	sll	a6,a2,a3
    226c:	8f5d                	or	a4,a4,a5
    226e:	00d518b3          	sll	a7,a0,a3
    2272:	01085593          	srli	a1,a6,0x10
    2276:	02b75633          	divu	a2,a4,a1
    227a:	01081313          	slli	t1,a6,0x10
    227e:	01035313          	srli	t1,t1,0x10
    2282:	0108d793          	srli	a5,a7,0x10
    2286:	02b77733          	remu	a4,a4,a1
    228a:	02660633          	mul	a2,a2,t1
    228e:	0742                	slli	a4,a4,0x10
    2290:	8fd9                	or	a5,a5,a4
    2292:	00c7f763          	bgeu	a5,a2,22a0 <__umoddi3+0x80>
    2296:	97c2                	add	a5,a5,a6
    2298:	0107e463          	bltu	a5,a6,22a0 <__umoddi3+0x80>
    229c:	30c7e563          	bltu	a5,a2,25a6 <__umoddi3+0x386>
    22a0:	8f91                	sub	a5,a5,a2
    22a2:	02b7d733          	divu	a4,a5,a1
    22a6:	01089513          	slli	a0,a7,0x10
    22aa:	8141                	srli	a0,a0,0x10
    22ac:	02b7f7b3          	remu	a5,a5,a1
    22b0:	02670733          	mul	a4,a4,t1
    22b4:	07c2                	slli	a5,a5,0x10
    22b6:	8d5d                	or	a0,a0,a5
    22b8:	00e57863          	bgeu	a0,a4,22c8 <__umoddi3+0xa8>
    22bc:	9542                	add	a0,a0,a6
    22be:	01056563          	bltu	a0,a6,22c8 <__umoddi3+0xa8>
    22c2:	00e57363          	bgeu	a0,a4,22c8 <__umoddi3+0xa8>
    22c6:	9542                	add	a0,a0,a6
    22c8:	8d19                	sub	a0,a0,a4
    22ca:	00d55533          	srl	a0,a0,a3
    22ce:	4581                	li	a1,0
    22d0:	8082                	ret
    22d2:	00d5f363          	bgeu	a1,a3,22d8 <__umoddi3+0xb8>
    22d6:	8082                	ret
    22d8:	6741                	lui	a4,0x10
    22da:	16e6eb63          	bltu	a3,a4,2450 <__umoddi3+0x230>
    22de:	01000737          	lui	a4,0x1000
    22e2:	4861                	li	a6,24
    22e4:	00e6f363          	bgeu	a3,a4,22ea <__umoddi3+0xca>
    22e8:	4841                	li	a6,16
    22ea:	0106d333          	srl	t1,a3,a6
    22ee:	0007e717          	auipc	a4,0x7e
    22f2:	f1270713          	addi	a4,a4,-238 # 80200 <__clz_tab>
    22f6:	971a                	add	a4,a4,t1
    22f8:	00074703          	lbu	a4,0(a4)
    22fc:	02000313          	li	t1,32
    2300:	9742                	add	a4,a4,a6
    2302:	40e30833          	sub	a6,t1,a4
    2306:	16e31a63          	bne	t1,a4,247a <__umoddi3+0x25a>
    230a:	00b6e463          	bltu	a3,a1,2312 <__umoddi3+0xf2>
    230e:	00c56a63          	bltu	a0,a2,2322 <__umoddi3+0x102>
    2312:	40c508b3          	sub	a7,a0,a2
    2316:	40d586b3          	sub	a3,a1,a3
    231a:	011537b3          	sltu	a5,a0,a7
    231e:	40f687b3          	sub	a5,a3,a5
    2322:	8546                	mv	a0,a7
    2324:	85be                	mv	a1,a5
    2326:	8082                	ret
    2328:	ce41                	beqz	a2,23c0 <__umoddi3+0x1a0>
    232a:	67c1                	lui	a5,0x10
    232c:	26f67163          	bgeu	a2,a5,258e <__umoddi3+0x36e>
    2330:	10063713          	sltiu	a4,a2,256
    2334:	00173713          	seqz	a4,a4
    2338:	070e                	slli	a4,a4,0x3
    233a:	00e656b3          	srl	a3,a2,a4
    233e:	0007e797          	auipc	a5,0x7e
    2342:	ec278793          	addi	a5,a5,-318 # 80200 <__clz_tab>
    2346:	97b6                	add	a5,a5,a3
    2348:	0007c783          	lbu	a5,0(a5)
    234c:	02000313          	li	t1,32
    2350:	97ba                	add	a5,a5,a4
    2352:	40f306b3          	sub	a3,t1,a5
    2356:	08f31563          	bne	t1,a5,23e0 <__umoddi3+0x1c0>
    235a:	40c58733          	sub	a4,a1,a2
    235e:	01065313          	srli	t1,a2,0x10
    2362:	0642                	slli	a2,a2,0x10
    2364:	8241                	srli	a2,a2,0x10
    2366:	026755b3          	divu	a1,a4,t1
    236a:	0108d793          	srli	a5,a7,0x10
    236e:	02677733          	remu	a4,a4,t1
    2372:	02c585b3          	mul	a1,a1,a2
    2376:	0742                	slli	a4,a4,0x10
    2378:	8fd9                	or	a5,a5,a4
    237a:	00b7f863          	bgeu	a5,a1,238a <__umoddi3+0x16a>
    237e:	97c2                	add	a5,a5,a6
    2380:	0107e563          	bltu	a5,a6,238a <__umoddi3+0x16a>
    2384:	00b7f363          	bgeu	a5,a1,238a <__umoddi3+0x16a>
    2388:	97c2                	add	a5,a5,a6
    238a:	8f8d                	sub	a5,a5,a1
    238c:	0267d733          	divu	a4,a5,t1
    2390:	08c2                	slli	a7,a7,0x10
    2392:	0108d893          	srli	a7,a7,0x10
    2396:	0267f7b3          	remu	a5,a5,t1
    239a:	02c70733          	mul	a4,a4,a2
    239e:	01079513          	slli	a0,a5,0x10
    23a2:	00a8e533          	or	a0,a7,a0
    23a6:	f0e56be3          	bltu	a0,a4,22bc <__umoddi3+0x9c>
    23aa:	8d19                	sub	a0,a0,a4
    23ac:	00d55533          	srl	a0,a0,a3
    23b0:	4581                	li	a1,0
    23b2:	8082                	ret
    23b4:	10063693          	sltiu	a3,a2,256
    23b8:	0016b693          	seqz	a3,a3
    23bc:	068e                	slli	a3,a3,0x3
    23be:	b549                	j	2240 <__umoddi3+0x20>
    23c0:	4681                	li	a3,0
    23c2:	0007e797          	auipc	a5,0x7e
    23c6:	e3e78793          	addi	a5,a5,-450 # 80200 <__clz_tab>
    23ca:	97b6                	add	a5,a5,a3
    23cc:	0007c783          	lbu	a5,0(a5)
    23d0:	4701                	li	a4,0
    23d2:	02000313          	li	t1,32
    23d6:	97ba                	add	a5,a5,a4
    23d8:	40f306b3          	sub	a3,t1,a5
    23dc:	f6f30fe3          	beq	t1,a5,235a <__umoddi3+0x13a>
    23e0:	00d61833          	sll	a6,a2,a3
    23e4:	00f5de33          	srl	t3,a1,a5
    23e8:	01085313          	srli	t1,a6,0x10
    23ec:	026e5eb3          	divu	t4,t3,t1
    23f0:	01081613          	slli	a2,a6,0x10
    23f4:	00d595b3          	sll	a1,a1,a3
    23f8:	00f55733          	srl	a4,a0,a5
    23fc:	8241                	srli	a2,a2,0x10
    23fe:	8f4d                	or	a4,a4,a1
    2400:	01075793          	srli	a5,a4,0x10
    2404:	00d518b3          	sll	a7,a0,a3
    2408:	026e7e33          	remu	t3,t3,t1
    240c:	02ce85b3          	mul	a1,t4,a2
    2410:	0e42                	slli	t3,t3,0x10
    2412:	01c7e7b3          	or	a5,a5,t3
    2416:	00b7f863          	bgeu	a5,a1,2426 <__umoddi3+0x206>
    241a:	97c2                	add	a5,a5,a6
    241c:	0107e563          	bltu	a5,a6,2426 <__umoddi3+0x206>
    2420:	00b7f363          	bgeu	a5,a1,2426 <__umoddi3+0x206>
    2424:	97c2                	add	a5,a5,a6
    2426:	8f8d                	sub	a5,a5,a1
    2428:	0267d5b3          	divu	a1,a5,t1
    242c:	0742                	slli	a4,a4,0x10
    242e:	8341                	srli	a4,a4,0x10
    2430:	0267f7b3          	remu	a5,a5,t1
    2434:	02c585b3          	mul	a1,a1,a2
    2438:	07c2                	slli	a5,a5,0x10
    243a:	8f5d                	or	a4,a4,a5
    243c:	00b77863          	bgeu	a4,a1,244c <__umoddi3+0x22c>
    2440:	9742                	add	a4,a4,a6
    2442:	01076563          	bltu	a4,a6,244c <__umoddi3+0x22c>
    2446:	00b77363          	bgeu	a4,a1,244c <__umoddi3+0x22c>
    244a:	9742                	add	a4,a4,a6
    244c:	8f0d                	sub	a4,a4,a1
    244e:	bf21                	j	2366 <__umoddi3+0x146>
    2450:	1006b813          	sltiu	a6,a3,256
    2454:	00183813          	seqz	a6,a6
    2458:	080e                	slli	a6,a6,0x3
    245a:	0106d333          	srl	t1,a3,a6
    245e:	0007e717          	auipc	a4,0x7e
    2462:	da270713          	addi	a4,a4,-606 # 80200 <__clz_tab>
    2466:	971a                	add	a4,a4,t1
    2468:	00074703          	lbu	a4,0(a4)
    246c:	02000313          	li	t1,32
    2470:	9742                	add	a4,a4,a6
    2472:	40e30833          	sub	a6,t1,a4
    2476:	e8e30ae3          	beq	t1,a4,230a <__umoddi3+0xea>
    247a:	010696b3          	sll	a3,a3,a6
    247e:	00e658b3          	srl	a7,a2,a4
    2482:	00d8e8b3          	or	a7,a7,a3
    2486:	00e5de33          	srl	t3,a1,a4
    248a:	0108df13          	srli	t5,a7,0x10
    248e:	03ee57b3          	divu	a5,t3,t5
    2492:	01089e93          	slli	t4,a7,0x10
    2496:	010ede93          	srli	t4,t4,0x10
    249a:	00e556b3          	srl	a3,a0,a4
    249e:	01051333          	sll	t1,a0,a6
    24a2:	010595b3          	sll	a1,a1,a6
    24a6:	8dd5                	or	a1,a1,a3
    24a8:	0105d693          	srli	a3,a1,0x10
    24ac:	01061633          	sll	a2,a2,a6
    24b0:	03ee7e33          	remu	t3,t3,t5
    24b4:	02fe8533          	mul	a0,t4,a5
    24b8:	0e42                	slli	t3,t3,0x10
    24ba:	01c6e6b3          	or	a3,a3,t3
    24be:	00a6fb63          	bgeu	a3,a0,24d4 <__umoddi3+0x2b4>
    24c2:	96c6                	add	a3,a3,a7
    24c4:	fff78e13          	addi	t3,a5,-1
    24c8:	0d16ed63          	bltu	a3,a7,25a2 <__umoddi3+0x382>
    24cc:	0ca6fb63          	bgeu	a3,a0,25a2 <__umoddi3+0x382>
    24d0:	17f9                	addi	a5,a5,-2
    24d2:	96c6                	add	a3,a3,a7
    24d4:	8e89                	sub	a3,a3,a0
    24d6:	03e6d533          	divu	a0,a3,t5
    24da:	05c2                	slli	a1,a1,0x10
    24dc:	81c1                	srli	a1,a1,0x10
    24de:	03e6f6b3          	remu	a3,a3,t5
    24e2:	02ae8eb3          	mul	t4,t4,a0
    24e6:	06c2                	slli	a3,a3,0x10
    24e8:	8dd5                	or	a1,a1,a3
    24ea:	01d5fb63          	bgeu	a1,t4,2500 <__umoddi3+0x2e0>
    24ee:	95c6                	add	a1,a1,a7
    24f0:	fff50693          	addi	a3,a0,-1
    24f4:	0b15e563          	bltu	a1,a7,259e <__umoddi3+0x37e>
    24f8:	0bd5f363          	bgeu	a1,t4,259e <__umoddi3+0x37e>
    24fc:	1579                	addi	a0,a0,-2
    24fe:	95c6                	add	a1,a1,a7
    2500:	01079693          	slli	a3,a5,0x10
    2504:	62c1                	lui	t0,0x10
    2506:	8ec9                	or	a3,a3,a0
    2508:	fff28513          	addi	a0,t0,-1 # ffff <_etext+0xc13b>
    250c:	00a6fe33          	and	t3,a3,a0
    2510:	01065f93          	srli	t6,a2,0x10
    2514:	82c1                	srli	a3,a3,0x10
    2516:	8d71                	and	a0,a0,a2
    2518:	02ae0f33          	mul	t5,t3,a0
    251c:	41d585b3          	sub	a1,a1,t4
    2520:	02a68533          	mul	a0,a3,a0
    2524:	010f5793          	srli	a5,t5,0x10
    2528:	03fe0e33          	mul	t3,t3,t6
    252c:	9e2a                	add	t3,t3,a0
    252e:	97f2                	add	a5,a5,t3
    2530:	03f686b3          	mul	a3,a3,t6
    2534:	00a7f363          	bgeu	a5,a0,253a <__umoddi3+0x31a>
    2538:	9696                	add	a3,a3,t0
    253a:	6ec1                	lui	t4,0x10
    253c:	1efd                	addi	t4,t4,-1 # ffff <_etext+0xc13b>
    253e:	01d7f533          	and	a0,a5,t4
    2542:	0107de13          	srli	t3,a5,0x10
    2546:	0542                	slli	a0,a0,0x10
    2548:	01df7f33          	and	t5,t5,t4
    254c:	00de07b3          	add	a5,t3,a3
    2550:	957a                	add	a0,a0,t5
    2552:	02f5e563          	bltu	a1,a5,257c <__umoddi3+0x35c>
    2556:	02f58163          	beq	a1,a5,2578 <__umoddi3+0x358>
    255a:	40a30533          	sub	a0,t1,a0
    255e:	00a33333          	sltu	t1,t1,a0
    2562:	8d9d                	sub	a1,a1,a5
    2564:	406585b3          	sub	a1,a1,t1
    2568:	00e59733          	sll	a4,a1,a4
    256c:	01055533          	srl	a0,a0,a6
    2570:	8d59                	or	a0,a0,a4
    2572:	0105d5b3          	srl	a1,a1,a6
    2576:	8082                	ret
    2578:	fea371e3          	bgeu	t1,a0,255a <__umoddi3+0x33a>
    257c:	40c50633          	sub	a2,a0,a2
    2580:	00c53533          	sltu	a0,a0,a2
    2584:	98aa                	add	a7,a7,a0
    2586:	411787b3          	sub	a5,a5,a7
    258a:	8532                	mv	a0,a2
    258c:	b7f9                	j	255a <__umoddi3+0x33a>
    258e:	010007b7          	lui	a5,0x1000
    2592:	00f67c63          	bgeu	a2,a5,25aa <__umoddi3+0x38a>
    2596:	01065693          	srli	a3,a2,0x10
    259a:	4741                	li	a4,16
    259c:	b34d                	j	233e <__umoddi3+0x11e>
    259e:	8536                	mv	a0,a3
    25a0:	b785                	j	2500 <__umoddi3+0x2e0>
    25a2:	87f2                	mv	a5,t3
    25a4:	bf05                	j	24d4 <__umoddi3+0x2b4>
    25a6:	97c2                	add	a5,a5,a6
    25a8:	b9e5                	j	22a0 <__umoddi3+0x80>
    25aa:	01865693          	srli	a3,a2,0x18
    25ae:	4761                	li	a4,24
    25b0:	b379                	j	233e <__umoddi3+0x11e>

000025b2 <__ledf2>:
    25b2:	882a                	mv	a6,a0
    25b4:	002027f3          	frrm	a5
    25b8:	001007b7          	lui	a5,0x100
    25bc:	0145d893          	srli	a7,a1,0x14
    25c0:	17fd                	addi	a5,a5,-1 # fffff <__top_dmem+0x6ffff>
    25c2:	0146d713          	srli	a4,a3,0x14
    25c6:	7ff8f893          	andi	a7,a7,2047
    25ca:	7ff00313          	li	t1,2047
    25ce:	00b7fe33          	and	t3,a5,a1
    25d2:	8eaa                	mv	t4,a0
    25d4:	8ff5                	and	a5,a5,a3
    25d6:	81fd                	srli	a1,a1,0x1f
    25d8:	8f32                	mv	t5,a2
    25da:	7ff77513          	andi	a0,a4,2047
    25de:	82fd                	srli	a3,a3,0x1f
    25e0:	02688d63          	beq	a7,t1,261a <__ledf2+0x68>
    25e4:	00650e63          	beq	a0,t1,2600 <__ledf2+0x4e>
    25e8:	04089563          	bnez	a7,2632 <__ledf2+0x80>
    25ec:	010e6833          	or	a6,t3,a6
    25f0:	e52d                	bnez	a0,265a <__ledf2+0xa8>
    25f2:	8e5d                	or	a2,a2,a5
    25f4:	ce25                	beqz	a2,266c <__ledf2+0xba>
    25f6:	06081e63          	bnez	a6,2672 <__ledf2+0xc0>
    25fa:	4505                	li	a0,1
    25fc:	cea9                	beqz	a3,2656 <__ledf2+0xa4>
    25fe:	8082                	ret
    2600:	8e5d                	or	a2,a2,a5
    2602:	e22d                	bnez	a2,2664 <__ledf2+0xb2>
    2604:	00089663          	bnez	a7,2610 <__ledf2+0x5e>
    2608:	010e6e33          	or	t3,t3,a6
    260c:	fe0e07e3          	beqz	t3,25fa <__ledf2+0x48>
    2610:	04d58163          	beq	a1,a3,2652 <__ledf2+0xa0>
    2614:	e1a9                	bnez	a1,2656 <__ledf2+0xa4>
    2616:	4505                	li	a0,1
    2618:	8082                	ret
    261a:	010e6e33          	or	t3,t3,a6
    261e:	040e1363          	bnez	t3,2664 <__ledf2+0xb2>
    2622:	ff1519e3          	bne	a0,a7,2614 <__ledf2+0x62>
    2626:	8fd1                	or	a5,a5,a2
    2628:	ef95                	bnez	a5,2664 <__ledf2+0xb2>
    262a:	fed595e3          	bne	a1,a3,2614 <__ledf2+0x62>
    262e:	4501                	li	a0,0
    2630:	8082                	ret
    2632:	d16d                	beqz	a0,2614 <__ledf2+0x62>
    2634:	fed590e3          	bne	a1,a3,2614 <__ledf2+0x62>
    2638:	fd154ee3          	blt	a0,a7,2614 <__ledf2+0x62>
    263c:	00a8cb63          	blt	a7,a0,2652 <__ledf2+0xa0>
    2640:	fdc7eae3          	bltu	a5,t3,2614 <__ledf2+0x62>
    2644:	00fe1763          	bne	t3,a5,2652 <__ledf2+0xa0>
    2648:	fddf66e3          	bltu	t5,t4,2614 <__ledf2+0x62>
    264c:	4501                	li	a0,0
    264e:	fbeef8e3          	bgeu	t4,t5,25fe <__ledf2+0x4c>
    2652:	4505                	li	a0,1
    2654:	f5cd                	bnez	a1,25fe <__ledf2+0x4c>
    2656:	557d                	li	a0,-1
    2658:	8082                	ret
    265a:	fa0800e3          	beqz	a6,25fa <__ledf2+0x48>
    265e:	fad59be3          	bne	a1,a3,2614 <__ledf2+0x62>
    2662:	bfc5                	j	2652 <__ledf2+0xa0>
    2664:	00186073          	csrsi	fflags,16
    2668:	4509                	li	a0,2
    266a:	8082                	ret
    266c:	fa0814e3          	bnez	a6,2614 <__ledf2+0x62>
    2670:	8082                	ret
    2672:	fcd587e3          	beq	a1,a3,2640 <__ledf2+0x8e>
    2676:	bf79                	j	2614 <__ledf2+0x62>

00002678 <__muldf3>:
    2678:	7179                	addi	sp,sp,-48
    267a:	d422                	sw	s0,40(sp)
    267c:	cc52                	sw	s4,24(sp)
    267e:	c85a                	sw	s6,16(sp)
    2680:	d606                	sw	ra,44(sp)
    2682:	d226                	sw	s1,36(sp)
    2684:	d04a                	sw	s2,32(sp)
    2686:	ce4e                	sw	s3,28(sp)
    2688:	ca56                	sw	s5,20(sp)
    268a:	c65e                	sw	s7,12(sp)
    268c:	c462                	sw	s8,8(sp)
    268e:	c266                	sw	s9,4(sp)
    2690:	c06a                	sw	s10,0(sp)
    2692:	842a                	mv	s0,a0
    2694:	8b32                	mv	s6,a2
    2696:	8a36                	mv	s4,a3
    2698:	002029f3          	frrm	s3
    269c:	0145d793          	srli	a5,a1,0x14
    26a0:	00c59913          	slli	s2,a1,0xc
    26a4:	7ff7f793          	andi	a5,a5,2047
    26a8:	00c95913          	srli	s2,s2,0xc
    26ac:	01f5db93          	srli	s7,a1,0x1f
    26b0:	36078663          	beqz	a5,2a1c <__muldf3+0x3a4>
    26b4:	7ff00713          	li	a4,2047
    26b8:	26e78b63          	beq	a5,a4,292e <__muldf3+0x2b6>
    26bc:	00391693          	slli	a3,s2,0x3
    26c0:	01d55713          	srli	a4,a0,0x1d
    26c4:	8f55                	or	a4,a4,a3
    26c6:	008006b7          	lui	a3,0x800
    26ca:	00d76933          	or	s2,a4,a3
    26ce:	00351a93          	slli	s5,a0,0x3
    26d2:	c0178d13          	addi	s10,a5,-1023
    26d6:	4c81                	li	s9,0
    26d8:	4c01                	li	s8,0
    26da:	4481                	li	s1,0
    26dc:	014a5793          	srli	a5,s4,0x14
    26e0:	00ca1713          	slli	a4,s4,0xc
    26e4:	7ff7f793          	andi	a5,a5,2047
    26e8:	835a                	mv	t1,s6
    26ea:	00c75413          	srli	s0,a4,0xc
    26ee:	01fa5a13          	srli	s4,s4,0x1f
    26f2:	26078563          	beqz	a5,295c <__muldf3+0x2e4>
    26f6:	7ff00713          	li	a4,2047
    26fa:	2ee78863          	beq	a5,a4,29ea <__muldf3+0x372>
    26fe:	00341713          	slli	a4,s0,0x3
    2702:	01db5693          	srli	a3,s6,0x1d
    2706:	8ed9                	or	a3,a3,a4
    2708:	c0178793          	addi	a5,a5,-1023
    270c:	00800737          	lui	a4,0x800
    2710:	00e6e433          	or	s0,a3,a4
    2714:	003b1313          	slli	t1,s6,0x3
    2718:	01a78633          	add	a2,a5,s10
    271c:	4681                	li	a3,0
    271e:	47a9                	li	a5,10
    2720:	00160893          	addi	a7,a2,1
    2724:	2797ce63          	blt	a5,s9,29a0 <__muldf3+0x328>
    2728:	014bc5b3          	xor	a1,s7,s4
    272c:	4789                	li	a5,2
    272e:	882e                	mv	a6,a1
    2730:	3397dc63          	bge	a5,s9,2a68 <__muldf3+0x3f0>
    2734:	4705                	li	a4,1
    2736:	01971733          	sll	a4,a4,s9
    273a:	53077793          	andi	a5,a4,1328
    273e:	26079263          	bnez	a5,29a2 <__muldf3+0x32a>
    2742:	24077793          	andi	a5,a4,576
    2746:	5a079263          	bnez	a5,2cea <__muldf3+0x672>
    274a:	08877713          	andi	a4,a4,136
    274e:	36071563          	bnez	a4,2ab8 <__muldf3+0x440>
    2752:	6e41                	lui	t3,0x10
    2754:	fffe0f13          	addi	t5,t3,-1 # ffff <_etext+0xc13b>
    2758:	010adf93          	srli	t6,s5,0x10
    275c:	01035793          	srli	a5,t1,0x10
    2760:	01eafab3          	and	s5,s5,t5
    2764:	01e37f33          	and	t5,t1,t5
    2768:	035f0733          	mul	a4,t5,s5
    276c:	03ef8533          	mul	a0,t6,t5
    2770:	01075393          	srli	t2,a4,0x10
    2774:	035786b3          	mul	a3,a5,s5
    2778:	96aa                	add	a3,a3,a0
    277a:	93b6                	add	t2,t2,a3
    277c:	02ff82b3          	mul	t0,t6,a5
    2780:	00a3f363          	bgeu	t2,a0,2786 <__muldf3+0x10e>
    2784:	92f2                	add	t0,t0,t3
    2786:	6341                	lui	t1,0x10
    2788:	fff30693          	addi	a3,t1,-1 # ffff <_etext+0xc13b>
    278c:	00d3f533          	and	a0,t2,a3
    2790:	01045e93          	srli	t4,s0,0x10
    2794:	8f75                	and	a4,a4,a3
    2796:	8c75                	and	s0,s0,a3
    2798:	0542                	slli	a0,a0,0x10
    279a:	028a86b3          	mul	a3,s5,s0
    279e:	953a                	add	a0,a0,a4
    27a0:	0103d393          	srli	t2,t2,0x10
    27a4:	028f8733          	mul	a4,t6,s0
    27a8:	0106de13          	srli	t3,a3,0x10
    27ac:	035e8ab3          	mul	s5,t4,s5
    27b0:	9aba                	add	s5,s5,a4
    27b2:	9e56                	add	t3,t3,s5
    27b4:	03df8fb3          	mul	t6,t6,t4
    27b8:	00ee7363          	bgeu	t3,a4,27be <__muldf3+0x146>
    27bc:	9f9a                	add	t6,t6,t1
    27be:	6ac1                	lui	s5,0x10
    27c0:	fffa8313          	addi	t1,s5,-1 # ffff <_etext+0xc13b>
    27c4:	01095a13          	srli	s4,s2,0x10
    27c8:	006e7733          	and	a4,t3,t1
    27cc:	00697933          	and	s2,s2,t1
    27d0:	010e5e13          	srli	t3,t3,0x10
    27d4:	0066f333          	and	t1,a3,t1
    27d8:	9e7e                	add	t3,t3,t6
    27da:	032f06b3          	mul	a3,t5,s2
    27de:	0742                	slli	a4,a4,0x10
    27e0:	971a                	add	a4,a4,t1
    27e2:	93ba                	add	t2,t2,a4
    27e4:	03278fb3          	mul	t6,a5,s2
    27e8:	0106d313          	srli	t1,a3,0x10
    27ec:	03ea0f33          	mul	t5,s4,t5
    27f0:	9ffa                	add	t6,t6,t5
    27f2:	937e                	add	t1,t1,t6
    27f4:	034787b3          	mul	a5,a5,s4
    27f8:	01e37363          	bgeu	t1,t5,27fe <__muldf3+0x186>
    27fc:	97d6                	add	a5,a5,s5
    27fe:	6ac1                	lui	s5,0x10
    2800:	fffa8f93          	addi	t6,s5,-1 # ffff <_etext+0xc13b>
    2804:	01f37f33          	and	t5,t1,t6
    2808:	01f6ffb3          	and	t6,a3,t6
    280c:	0f42                	slli	t5,t5,0x10
    280e:	9f7e                	add	t5,t5,t6
    2810:	01035313          	srli	t1,t1,0x10
    2814:	028906b3          	mul	a3,s2,s0
    2818:	933e                	add	t1,t1,a5
    281a:	032e8933          	mul	s2,t4,s2
    281e:	0106df93          	srli	t6,a3,0x10
    2822:	028a0433          	mul	s0,s4,s0
    2826:	9922                	add	s2,s2,s0
    2828:	9fca                	add	t6,t6,s2
    282a:	034e8eb3          	mul	t4,t4,s4
    282e:	008ff363          	bgeu	t6,s0,2834 <__muldf3+0x1bc>
    2832:	9ed6                	add	t4,t4,s5
    2834:	6441                	lui	s0,0x10
    2836:	147d                	addi	s0,s0,-1 # ffff <_etext+0xc13b>
    2838:	008ff7b3          	and	a5,t6,s0
    283c:	07c2                	slli	a5,a5,0x10
    283e:	8c75                	and	s0,s0,a3
    2840:	97a2                	add	a5,a5,s0
    2842:	007286b3          	add	a3,t0,t2
    2846:	9e3e                	add	t3,t3,a5
    2848:	00e6b733          	sltu	a4,a3,a4
    284c:	9772                	add	a4,a4,t3
    284e:	9f36                	add	t5,t5,a3
    2850:	933a                	add	t1,t1,a4
    2852:	00df36b3          	sltu	a3,t5,a3
    2856:	969a                	add	a3,a3,t1
    2858:	00fe37b3          	sltu	a5,t3,a5
    285c:	01c73e33          	sltu	t3,a4,t3
    2860:	01c7e7b3          	or	a5,a5,t3
    2864:	00e33733          	sltu	a4,t1,a4
    2868:	010fdf93          	srli	t6,t6,0x10
    286c:	0066b333          	sltu	t1,a3,t1
    2870:	97fe                	add	a5,a5,t6
    2872:	00676733          	or	a4,a4,t1
    2876:	009f1a93          	slli	s5,t5,0x9
    287a:	973e                	add	a4,a4,a5
    287c:	00aaeab3          	or	s5,s5,a0
    2880:	9776                	add	a4,a4,t4
    2882:	0726                	slli	a4,a4,0x9
    2884:	01503ab3          	snez	s5,s5
    2888:	017f5f13          	srli	t5,t5,0x17
    288c:	0176d913          	srli	s2,a3,0x17
    2890:	01eaeab3          	or	s5,s5,t5
    2894:	06a6                	slli	a3,a3,0x9
    2896:	00771793          	slli	a5,a4,0x7
    289a:	01276933          	or	s2,a4,s2
    289e:	00daeab3          	or	s5,s5,a3
    28a2:	0007df63          	bgez	a5,28c0 <__muldf3+0x248>
    28a6:	001ad793          	srli	a5,s5,0x1
    28aa:	001afa93          	andi	s5,s5,1
    28ae:	01f91713          	slli	a4,s2,0x1f
    28b2:	0157e7b3          	or	a5,a5,s5
    28b6:	00e7eab3          	or	s5,a5,a4
    28ba:	00195913          	srli	s2,s2,0x1
    28be:	8646                	mv	a2,a7
    28c0:	3ff60793          	addi	a5,a2,1023
    28c4:	20f05763          	blez	a5,2ad2 <__muldf3+0x45a>
    28c8:	007af713          	andi	a4,s5,7
    28cc:	c715                	beqz	a4,28f8 <__muldf3+0x280>
    28ce:	4709                	li	a4,2
    28d0:	0014e493          	ori	s1,s1,1
    28d4:	3ae98963          	beq	s3,a4,2c86 <__muldf3+0x60e>
    28d8:	470d                	li	a4,3
    28da:	38e98463          	beq	s3,a4,2c62 <__muldf3+0x5ea>
    28de:	00099d63          	bnez	s3,28f8 <__muldf3+0x280>
    28e2:	00faf713          	andi	a4,s5,15
    28e6:	4691                	li	a3,4
    28e8:	00d70863          	beq	a4,a3,28f8 <__muldf3+0x280>
    28ec:	004a8713          	addi	a4,s5,4
    28f0:	01573ab3          	sltu	s5,a4,s5
    28f4:	9956                	add	s2,s2,s5
    28f6:	8aba                	mv	s5,a4
    28f8:	00791713          	slli	a4,s2,0x7
    28fc:	00075963          	bgez	a4,290e <__muldf3+0x296>
    2900:	ff0007b7          	lui	a5,0xff000
    2904:	17fd                	addi	a5,a5,-1 # feffffff <__top_dmem+0xfef6ffff>
    2906:	00f97933          	and	s2,s2,a5
    290a:	40060793          	addi	a5,a2,1024
    290e:	7fe00713          	li	a4,2046
    2912:	28f74863          	blt	a4,a5,2ba2 <__muldf3+0x52a>
    2916:	003ada93          	srli	s5,s5,0x3
    291a:	01d91713          	slli	a4,s2,0x1d
    291e:	00991693          	slli	a3,s2,0x9
    2922:	01576733          	or	a4,a4,s5
    2926:	82b1                	srli	a3,a3,0xc
    2928:	7ff7f793          	andi	a5,a5,2047
    292c:	a841                	j	29bc <__muldf3+0x344>
    292e:	00a96ab3          	or	s5,s2,a0
    2932:	160a9863          	bnez	s5,2aa2 <__muldf3+0x42a>
    2936:	014a5793          	srli	a5,s4,0x14
    293a:	00ca1713          	slli	a4,s4,0xc
    293e:	7ff7f793          	andi	a5,a5,2047
    2942:	4901                	li	s2,0
    2944:	4ca1                	li	s9,8
    2946:	7ff00d13          	li	s10,2047
    294a:	4c09                	li	s8,2
    294c:	4481                	li	s1,0
    294e:	835a                	mv	t1,s6
    2950:	00c75413          	srli	s0,a4,0xc
    2954:	01fa5a13          	srli	s4,s4,0x1f
    2958:	d8079fe3          	bnez	a5,26f6 <__muldf3+0x7e>
    295c:	016467b3          	or	a5,s0,s6
    2960:	12078463          	beqz	a5,2a88 <__muldf3+0x410>
    2964:	20040263          	beqz	s0,2b68 <__muldf3+0x4f0>
    2968:	8522                	mv	a0,s0
    296a:	380010ef          	jal	3cea <__clzsi2>
    296e:	862a                	mv	a2,a0
    2970:	ff550713          	addi	a4,a0,-11
    2974:	47f5                	li	a5,29
    2976:	ff860313          	addi	t1,a2,-8
    297a:	8f99                	sub	a5,a5,a4
    297c:	00fb57b3          	srl	a5,s6,a5
    2980:	00641733          	sll	a4,s0,t1
    2984:	00e7e433          	or	s0,a5,a4
    2988:	006b1333          	sll	t1,s6,t1
    298c:	40cd0633          	sub	a2,s10,a2
    2990:	c0d60613          	addi	a2,a2,-1011
    2994:	47a9                	li	a5,10
    2996:	4681                	li	a3,0
    2998:	00160893          	addi	a7,a2,1
    299c:	d997d6e3          	bge	a5,s9,2728 <__muldf3+0xb0>
    29a0:	85de                	mv	a1,s7
    29a2:	4789                	li	a5,2
    29a4:	0afc0c63          	beq	s8,a5,2a5c <__muldf3+0x3e4>
    29a8:	478d                	li	a5,3
    29aa:	2cfc0563          	beq	s8,a5,2c74 <__muldf3+0x5fc>
    29ae:	4785                	li	a5,1
    29b0:	882e                	mv	a6,a1
    29b2:	1afc1963          	bne	s8,a5,2b64 <__muldf3+0x4ec>
    29b6:	4781                	li	a5,0
    29b8:	4681                	li	a3,0
    29ba:	4701                	li	a4,0
    29bc:	07d2                	slli	a5,a5,0x14
    29be:	8fd5                	or	a5,a5,a3
    29c0:	087e                	slli	a6,a6,0x1f
    29c2:	0107e7b3          	or	a5,a5,a6
    29c6:	853a                	mv	a0,a4
    29c8:	85be                	mv	a1,a5
    29ca:	18049a63          	bnez	s1,2b5e <__muldf3+0x4e6>
    29ce:	50b2                	lw	ra,44(sp)
    29d0:	5422                	lw	s0,40(sp)
    29d2:	5492                	lw	s1,36(sp)
    29d4:	5902                	lw	s2,32(sp)
    29d6:	49f2                	lw	s3,28(sp)
    29d8:	4a62                	lw	s4,24(sp)
    29da:	4ad2                	lw	s5,20(sp)
    29dc:	4b42                	lw	s6,16(sp)
    29de:	4bb2                	lw	s7,12(sp)
    29e0:	4c22                	lw	s8,8(sp)
    29e2:	4c92                	lw	s9,4(sp)
    29e4:	4d02                	lw	s10,0(sp)
    29e6:	6145                	addi	sp,sp,48
    29e8:	8082                	ret
    29ea:	01646733          	or	a4,s0,s6
    29ee:	7ffd0613          	addi	a2,s10,2047
    29f2:	c355                	beqz	a4,2a96 <__muldf3+0x41e>
    29f4:	00080737          	lui	a4,0x80
    29f8:	003cec93          	ori	s9,s9,3
    29fc:	00e47363          	bgeu	s0,a4,2a02 <__muldf3+0x38a>
    2a00:	44c1                	li	s1,16
    2a02:	6705                	lui	a4,0x1
    2a04:	014bc833          	xor	a6,s7,s4
    2a08:	80070713          	addi	a4,a4,-2048 # 800 <test_float_ops+0x166>
    2a0c:	46a9                	li	a3,10
    2a0e:	85c2                	mv	a1,a6
    2a10:	00ed08b3          	add	a7,s10,a4
    2a14:	0b96c763          	blt	a3,s9,2ac2 <__muldf3+0x44a>
    2a18:	468d                	li	a3,3
    2a1a:	bb29                	j	2734 <__muldf3+0xbc>
    2a1c:	00a96ab3          	or	s5,s2,a0
    2a20:	040a8e63          	beqz	s5,2a7c <__muldf3+0x404>
    2a24:	16090163          	beqz	s2,2b86 <__muldf3+0x50e>
    2a28:	854a                	mv	a0,s2
    2a2a:	2c0010ef          	jal	3cea <__clzsi2>
    2a2e:	872a                	mv	a4,a0
    2a30:	ff550693          	addi	a3,a0,-11
    2a34:	47f5                	li	a5,29
    2a36:	ff870a93          	addi	s5,a4,-8
    2a3a:	8f95                	sub	a5,a5,a3
    2a3c:	00f457b3          	srl	a5,s0,a5
    2a40:	015916b3          	sll	a3,s2,s5
    2a44:	00d7e933          	or	s2,a5,a3
    2a48:	01541ab3          	sll	s5,s0,s5
    2a4c:	c0d00793          	li	a5,-1011
    2a50:	40e78d33          	sub	s10,a5,a4
    2a54:	4c81                	li	s9,0
    2a56:	4c01                	li	s8,0
    2a58:	4481                	li	s1,0
    2a5a:	b149                	j	26dc <__muldf3+0x64>
    2a5c:	882e                	mv	a6,a1
    2a5e:	7ff00793          	li	a5,2047
    2a62:	4681                	li	a3,0
    2a64:	4701                	li	a4,0
    2a66:	bf99                	j	29bc <__muldf3+0x344>
    2a68:	1cfd                	addi	s9,s9,-1
    2a6a:	4705                	li	a4,1
    2a6c:	cf9763e3          	bltu	a4,s9,2752 <__muldf3+0xda>
    2a70:	fef686e3          	beq	a3,a5,2a5c <__muldf3+0x3e4>
    2a74:	8922                	mv	s2,s0
    2a76:	8a9a                	mv	s5,t1
    2a78:	8c36                	mv	s8,a3
    2a7a:	bf15                	j	29ae <__muldf3+0x336>
    2a7c:	4901                	li	s2,0
    2a7e:	4c91                	li	s9,4
    2a80:	4d01                	li	s10,0
    2a82:	4c05                	li	s8,1
    2a84:	4481                	li	s1,0
    2a86:	b999                	j	26dc <__muldf3+0x64>
    2a88:	001cec93          	ori	s9,s9,1
    2a8c:	866a                	mv	a2,s10
    2a8e:	4401                	li	s0,0
    2a90:	4301                	li	t1,0
    2a92:	4685                	li	a3,1
    2a94:	b169                	j	271e <__muldf3+0xa6>
    2a96:	002cec93          	ori	s9,s9,2
    2a9a:	4401                	li	s0,0
    2a9c:	4301                	li	t1,0
    2a9e:	4689                	li	a3,2
    2aa0:	b9bd                	j	271e <__muldf3+0xa6>
    2aa2:	000804b7          	lui	s1,0x80
    2aa6:	009934b3          	sltu	s1,s2,s1
    2aaa:	0492                	slli	s1,s1,0x4
    2aac:	8aaa                	mv	s5,a0
    2aae:	4cb1                	li	s9,12
    2ab0:	7ff00d13          	li	s10,2047
    2ab4:	4c0d                	li	s8,3
    2ab6:	b11d                	j	26dc <__muldf3+0x64>
    2ab8:	8922                	mv	s2,s0
    2aba:	8a9a                	mv	s5,t1
    2abc:	8c36                	mv	s8,a3
    2abe:	85d2                	mv	a1,s4
    2ac0:	b5cd                	j	29a2 <__muldf3+0x32a>
    2ac2:	473d                	li	a4,15
    2ac4:	22ec9a63          	bne	s9,a4,2cf8 <__muldf3+0x680>
    2ac8:	4801                	li	a6,0
    2aca:	000806b7          	lui	a3,0x80
    2ace:	4701                	li	a4,0
    2ad0:	b5f5                	j	29bc <__muldf3+0x344>
    2ad2:	e3ad                	bnez	a5,2b34 <__muldf3+0x4bc>
    2ad4:	007af713          	andi	a4,s5,7
    2ad8:	87ca                	mv	a5,s2
    2ada:	c70d                	beqz	a4,2b04 <__muldf3+0x48c>
    2adc:	4709                	li	a4,2
    2ade:	0014e493          	ori	s1,s1,1
    2ae2:	20e98163          	beq	s3,a4,2ce4 <__muldf3+0x66c>
    2ae6:	470d                	li	a4,3
    2ae8:	1ee98663          	beq	s3,a4,2cd4 <__muldf3+0x65c>
    2aec:	00099c63          	bnez	s3,2b04 <__muldf3+0x48c>
    2af0:	00faf713          	andi	a4,s5,15
    2af4:	4691                	li	a3,4
    2af6:	00d70763          	beq	a4,a3,2b04 <__muldf3+0x48c>
    2afa:	ffcab793          	sltiu	a5,s5,-4
    2afe:	0017b793          	seqz	a5,a5
    2b02:	97ca                	add	a5,a5,s2
    2b04:	0187d513          	srli	a0,a5,0x18
    2b08:	00154513          	xori	a0,a0,1
    2b0c:	8905                	andi	a0,a0,1
    2b0e:	4685                	li	a3,1
    2b10:	41e60613          	addi	a2,a2,1054
    2b14:	00ca97b3          	sll	a5,s5,a2
    2b18:	00f037b3          	snez	a5,a5
    2b1c:	00c91633          	sll	a2,s2,a2
    2b20:	8fd1                	or	a5,a5,a2
    2b22:	00dad733          	srl	a4,s5,a3
    2b26:	8f5d                	or	a4,a4,a5
    2b28:	00777613          	andi	a2,a4,7
    2b2c:	00d957b3          	srl	a5,s2,a3
    2b30:	e661                	bnez	a2,2bf8 <__muldf3+0x580>
    2b32:	a8c5                	j	2c22 <__muldf3+0x5aa>
    2b34:	4505                	li	a0,1
    2b36:	40f506b3          	sub	a3,a0,a5
    2b3a:	03800713          	li	a4,56
    2b3e:	08d75363          	bge	a4,a3,2bc4 <__muldf3+0x54c>
    2b42:	012ae733          	or	a4,s5,s2
    2b46:	eb6d                	bnez	a4,2c38 <__muldf3+0x5c0>
    2b48:	0024e493          	ori	s1,s1,2
    2b4c:	4681                	li	a3,0
    2b4e:	4781                	li	a5,0
    2b50:	07d2                	slli	a5,a5,0x14
    2b52:	8fd5                	or	a5,a5,a3
    2b54:	087e                	slli	a6,a6,0x1f
    2b56:	0107e7b3          	or	a5,a5,a6
    2b5a:	853a                	mv	a0,a4
    2b5c:	85be                	mv	a1,a5
    2b5e:	0014a073          	csrs	fflags,s1
    2b62:	b5b5                	j	29ce <__muldf3+0x356>
    2b64:	8646                	mv	a2,a7
    2b66:	bba9                	j	28c0 <__muldf3+0x248>
    2b68:	855a                	mv	a0,s6
    2b6a:	180010ef          	jal	3cea <__clzsi2>
    2b6e:	01550713          	addi	a4,a0,21
    2b72:	47f1                	li	a5,28
    2b74:	02050613          	addi	a2,a0,32
    2b78:	dee7dee3          	bge	a5,a4,2974 <__muldf3+0x2fc>
    2b7c:	1561                	addi	a0,a0,-8
    2b7e:	4301                	li	t1,0
    2b80:	00ab1433          	sll	s0,s6,a0
    2b84:	b521                	j	298c <__muldf3+0x314>
    2b86:	164010ef          	jal	3cea <__clzsi2>
    2b8a:	01550693          	addi	a3,a0,21
    2b8e:	47f1                	li	a5,28
    2b90:	02050713          	addi	a4,a0,32
    2b94:	ead7d0e3          	bge	a5,a3,2a34 <__muldf3+0x3bc>
    2b98:	1561                	addi	a0,a0,-8
    2b9a:	4a81                	li	s5,0
    2b9c:	00a41933          	sll	s2,s0,a0
    2ba0:	b575                	j	2a4c <__muldf3+0x3d4>
    2ba2:	4789                	li	a5,2
    2ba4:	0cf98f63          	beq	s3,a5,2c82 <__muldf3+0x60a>
    2ba8:	478d                	li	a5,3
    2baa:	0af98463          	beq	s3,a5,2c52 <__muldf3+0x5da>
    2bae:	0a098363          	beqz	s3,2c54 <__muldf3+0x5dc>
    2bb2:	001006b7          	lui	a3,0x100
    2bb6:	7fe00793          	li	a5,2046
    2bba:	16fd                	addi	a3,a3,-1 # fffff <__top_dmem+0x6ffff>
    2bbc:	577d                	li	a4,-1
    2bbe:	0054e493          	ori	s1,s1,5
    2bc2:	b779                	j	2b50 <__muldf3+0x4d8>
    2bc4:	477d                	li	a4,31
    2bc6:	f4d755e3          	bge	a4,a3,2b10 <__muldf3+0x498>
    2bca:	5705                	li	a4,-31
    2bcc:	40f707b3          	sub	a5,a4,a5
    2bd0:	02000713          	li	a4,32
    2bd4:	00f957b3          	srl	a5,s2,a5
    2bd8:	00e68863          	beq	a3,a4,2be8 <__muldf3+0x570>
    2bdc:	43e60613          	addi	a2,a2,1086
    2be0:	00c91633          	sll	a2,s2,a2
    2be4:	00caeab3          	or	s5,s5,a2
    2be8:	01503733          	snez	a4,s5
    2bec:	8f5d                	or	a4,a4,a5
    2bee:	00777793          	andi	a5,a4,7
    2bf2:	c3f9                	beqz	a5,2cb8 <__muldf3+0x640>
    2bf4:	4505                	li	a0,1
    2bf6:	4781                	li	a5,0
    2bf8:	4689                	li	a3,2
    2bfa:	0014e493          	ori	s1,s1,1
    2bfe:	0cd98963          	beq	s3,a3,2cd0 <__muldf3+0x658>
    2c02:	468d                	li	a3,3
    2c04:	0ad98e63          	beq	s3,a3,2cc0 <__muldf3+0x648>
    2c08:	00099d63          	bnez	s3,2c22 <__muldf3+0x5aa>
    2c0c:	00f77693          	andi	a3,a4,15
    2c10:	4611                	li	a2,4
    2c12:	00c68863          	beq	a3,a2,2c22 <__muldf3+0x5aa>
    2c16:	00470693          	addi	a3,a4,4
    2c1a:	00e6b733          	sltu	a4,a3,a4
    2c1e:	97ba                	add	a5,a5,a4
    2c20:	8736                	mv	a4,a3
    2c22:	00879693          	slli	a3,a5,0x8
    2c26:	0606d963          	bgez	a3,2c98 <__muldf3+0x620>
    2c2a:	0014e493          	ori	s1,s1,1
    2c2e:	ed39                	bnez	a0,2c8c <__muldf3+0x614>
    2c30:	4681                	li	a3,0
    2c32:	4785                	li	a5,1
    2c34:	4701                	li	a4,0
    2c36:	bf29                	j	2b50 <__muldf3+0x4d8>
    2c38:	4789                	li	a5,2
    2c3a:	0014e493          	ori	s1,s1,1
    2c3e:	872e                	mv	a4,a1
    2c40:	f0f984e3          	beq	s3,a5,2b48 <__muldf3+0x4d0>
    2c44:	478d                	li	a5,3
    2c46:	4701                	li	a4,0
    2c48:	f0f990e3          	bne	s3,a5,2b48 <__muldf3+0x4d0>
    2c4c:	40b50733          	sub	a4,a0,a1
    2c50:	bde5                	j	2b48 <__muldf3+0x4d0>
    2c52:	f1a5                	bnez	a1,2bb2 <__muldf3+0x53a>
    2c54:	7ff00793          	li	a5,2047
    2c58:	4681                	li	a3,0
    2c5a:	4701                	li	a4,0
    2c5c:	0054e493          	ori	s1,s1,5
    2c60:	bdc5                	j	2b50 <__muldf3+0x4d8>
    2c62:	c8059be3          	bnez	a1,28f8 <__muldf3+0x280>
    2c66:	008a8713          	addi	a4,s5,8
    2c6a:	01573ab3          	sltu	s5,a4,s5
    2c6e:	9956                	add	s2,s2,s5
    2c70:	8aba                	mv	s5,a4
    2c72:	b159                	j	28f8 <__muldf3+0x280>
    2c74:	4801                	li	a6,0
    2c76:	7ff00793          	li	a5,2047
    2c7a:	000806b7          	lui	a3,0x80
    2c7e:	4701                	li	a4,0
    2c80:	bb35                	j	29bc <__muldf3+0x344>
    2c82:	f9e9                	bnez	a1,2c54 <__muldf3+0x5dc>
    2c84:	b73d                	j	2bb2 <__muldf3+0x53a>
    2c86:	c60589e3          	beqz	a1,28f8 <__muldf3+0x280>
    2c8a:	bff1                	j	2c66 <__muldf3+0x5ee>
    2c8c:	4785                	li	a5,1
    2c8e:	4681                	li	a3,0
    2c90:	4701                	li	a4,0
    2c92:	0024e493          	ori	s1,s1,2
    2c96:	bd6d                	j	2b50 <__muldf3+0x4d8>
    2c98:	00979693          	slli	a3,a5,0x9
    2c9c:	830d                	srli	a4,a4,0x3
    2c9e:	07f6                	slli	a5,a5,0x1d
    2ca0:	82b1                	srli	a3,a3,0xc
    2ca2:	8f5d                	or	a4,a4,a5
    2ca4:	e119                	bnez	a0,2caa <__muldf3+0x632>
    2ca6:	4781                	li	a5,0
    2ca8:	bb11                	j	29bc <__muldf3+0x344>
    2caa:	0014f793          	andi	a5,s1,1
    2cae:	dfe5                	beqz	a5,2ca6 <__muldf3+0x62e>
    2cb0:	4781                	li	a5,0
    2cb2:	0024e493          	ori	s1,s1,2
    2cb6:	bd69                	j	2b50 <__muldf3+0x4d8>
    2cb8:	830d                	srli	a4,a4,0x3
    2cba:	4781                	li	a5,0
    2cbc:	4681                	li	a3,0
    2cbe:	b9fd                	j	29bc <__muldf3+0x344>
    2cc0:	f1ad                	bnez	a1,2c22 <__muldf3+0x5aa>
    2cc2:	00870693          	addi	a3,a4,8
    2cc6:	00e6b733          	sltu	a4,a3,a4
    2cca:	97ba                	add	a5,a5,a4
    2ccc:	8736                	mv	a4,a3
    2cce:	bf91                	j	2c22 <__muldf3+0x5aa>
    2cd0:	d9a9                	beqz	a1,2c22 <__muldf3+0x5aa>
    2cd2:	bfc5                	j	2cc2 <__muldf3+0x64a>
    2cd4:	e20598e3          	bnez	a1,2b04 <__muldf3+0x48c>
    2cd8:	ff8ab793          	sltiu	a5,s5,-8
    2cdc:	0017b793          	seqz	a5,a5
    2ce0:	97ca                	add	a5,a5,s2
    2ce2:	b50d                	j	2b04 <__muldf3+0x48c>
    2ce4:	e20580e3          	beqz	a1,2b04 <__muldf3+0x48c>
    2ce8:	bfc5                	j	2cd8 <__muldf3+0x660>
    2cea:	4501                	li	a0,0
    2cec:	7ff805b7          	lui	a1,0x7ff80
    2cf0:	44c1                	li	s1,16
    2cf2:	0014a073          	csrs	fflags,s1
    2cf6:	b9e1                	j	29ce <__muldf3+0x356>
    2cf8:	8922                	mv	s2,s0
    2cfa:	8ada                	mv	s5,s6
    2cfc:	4c0d                	li	s8,3
    2cfe:	85d2                	mv	a1,s4
    2d00:	b14d                	j	29a2 <__muldf3+0x32a>

00002d02 <__subdf3>:
    2d02:	1101                	addi	sp,sp,-32
    2d04:	ce06                	sw	ra,28(sp)
    2d06:	cc22                	sw	s0,24(sp)
    2d08:	ca26                	sw	s1,20(sp)
    2d0a:	c84a                	sw	s2,16(sp)
    2d0c:	c64e                	sw	s3,12(sp)
    2d0e:	c452                	sw	s4,8(sp)
    2d10:	002024f3          	frrm	s1
    2d14:	001007b7          	lui	a5,0x100
    2d18:	17fd                	addi	a5,a5,-1 # fffff <__top_dmem+0x6ffff>
    2d1a:	00b7f8b3          	and	a7,a5,a1
    2d1e:	0146d813          	srli	a6,a3,0x14
    2d22:	8ff5                	and	a5,a5,a3
    2d24:	0145d993          	srli	s3,a1,0x14
    2d28:	088e                	slli	a7,a7,0x3
    2d2a:	01d55e13          	srli	t3,a0,0x1d
    2d2e:	078e                	slli	a5,a5,0x3
    2d30:	01d65713          	srli	a4,a2,0x1d
    2d34:	7ff87813          	andi	a6,a6,2047
    2d38:	7ff00313          	li	t1,2047
    2d3c:	01f5d413          	srli	s0,a1,0x1f
    2d40:	7ff9f993          	andi	s3,s3,2047
    2d44:	011e65b3          	or	a1,t3,a7
    2d48:	00351e93          	slli	t4,a0,0x3
    2d4c:	82fd                	srli	a3,a3,0x1f
    2d4e:	8f5d                	or	a4,a4,a5
    2d50:	00361893          	slli	a7,a2,0x3
    2d54:	20680163          	beq	a6,t1,2f56 <__subdf3+0x254>
    2d58:	0016ce13          	xori	t3,a3,1
    2d5c:	410987b3          	sub	a5,s3,a6
    2d60:	0dc40c63          	beq	s0,t3,2e38 <__subdf3+0x136>
    2d64:	24f05fe3          	blez	a5,37c2 <__subdf3+0xac0>
    2d68:	26080563          	beqz	a6,2fd2 <__subdf3+0x2d0>
    2d6c:	4e698f63          	beq	s3,t1,326a <__subdf3+0x568>
    2d70:	03800693          	li	a3,56
    2d74:	4905                	li	s2,1
    2d76:	02f6ca63          	blt	a3,a5,2daa <__subdf3+0xa8>
    2d7a:	008006b7          	lui	a3,0x800
    2d7e:	8f55                	or	a4,a4,a3
    2d80:	46fd                	li	a3,31
    2d82:	5ef6ca63          	blt	a3,a5,3376 <__subdf3+0x674>
    2d86:	02000693          	li	a3,32
    2d8a:	8e9d                	sub	a3,a3,a5
    2d8c:	00d71933          	sll	s2,a4,a3
    2d90:	00f8d633          	srl	a2,a7,a5
    2d94:	00d896b3          	sll	a3,a7,a3
    2d98:	00c96933          	or	s2,s2,a2
    2d9c:	00d036b3          	snez	a3,a3
    2da0:	00f757b3          	srl	a5,a4,a5
    2da4:	00d96933          	or	s2,s2,a3
    2da8:	8d9d                	sub	a1,a1,a5
    2daa:	412e8933          	sub	s2,t4,s2
    2dae:	012ebeb3          	sltu	t4,t4,s2
    2db2:	41d58a33          	sub	s4,a1,t4
    2db6:	008a1793          	slli	a5,s4,0x8
    2dba:	2c07df63          	bgez	a5,3098 <__subdf3+0x396>
    2dbe:	008007b7          	lui	a5,0x800
    2dc2:	17fd                	addi	a5,a5,-1 # 7fffff <__top_dmem+0x76ffff>
    2dc4:	00fa7a33          	and	s4,s4,a5
    2dc8:	340a0263          	beqz	s4,310c <__subdf3+0x40a>
    2dcc:	8552                	mv	a0,s4
    2dce:	71d000ef          	jal	3cea <__clzsi2>
    2dd2:	ff850793          	addi	a5,a0,-8
    2dd6:	02000693          	li	a3,32
    2dda:	40f68733          	sub	a4,a3,a5
    2dde:	00e95733          	srl	a4,s2,a4
    2de2:	00fa1a33          	sll	s4,s4,a5
    2de6:	01476733          	or	a4,a4,s4
    2dea:	00f91933          	sll	s2,s2,a5
    2dee:	3f37c563          	blt	a5,s3,31d8 <__subdf3+0x4d6>
    2df2:	413787b3          	sub	a5,a5,s3
    2df6:	0785                	addi	a5,a5,1
    2df8:	8e9d                	sub	a3,a3,a5
    2dfa:	00d91633          	sll	a2,s2,a3
    2dfe:	00f95a33          	srl	s4,s2,a5
    2e02:	00c03633          	snez	a2,a2
    2e06:	01466633          	or	a2,a2,s4
    2e0a:	00d716b3          	sll	a3,a4,a3
    2e0e:	00c6e933          	or	s2,a3,a2
    2e12:	00f75a33          	srl	s4,a4,a5
    2e16:	014967b3          	or	a5,s2,s4
    2e1a:	20079c63          	bnez	a5,3032 <__subdf3+0x330>
    2e1e:	00147493          	andi	s1,s0,1
    2e22:	04fe                	slli	s1,s1,0x1f
    2e24:	4501                	li	a0,0
    2e26:	85a6                	mv	a1,s1
    2e28:	40f2                	lw	ra,28(sp)
    2e2a:	4462                	lw	s0,24(sp)
    2e2c:	44d2                	lw	s1,20(sp)
    2e2e:	4942                	lw	s2,16(sp)
    2e30:	49b2                	lw	s3,12(sp)
    2e32:	4a22                	lw	s4,8(sp)
    2e34:	6105                	addi	sp,sp,32
    2e36:	8082                	ret
    2e38:	1af05ae3          	blez	a5,37ec <__subdf3+0xaea>
    2e3c:	1e081063          	bnez	a6,301c <__subdf3+0x31a>
    2e40:	011766b3          	or	a3,a4,a7
    2e44:	30068c63          	beqz	a3,315c <__subdf3+0x45a>
    2e48:	fff78693          	addi	a3,a5,-1
    2e4c:	60068e63          	beqz	a3,3468 <__subdf3+0x766>
    2e50:	38678e63          	beq	a5,t1,31ec <__subdf3+0x4ea>
    2e54:	03800793          	li	a5,56
    2e58:	4a05                	li	s4,1
    2e5a:	02d7c863          	blt	a5,a3,2e8a <__subdf3+0x188>
    2e5e:	87b6                	mv	a5,a3
    2e60:	46fd                	li	a3,31
    2e62:	68f6c663          	blt	a3,a5,34ee <__subdf3+0x7ec>
    2e66:	02000693          	li	a3,32
    2e6a:	8e9d                	sub	a3,a3,a5
    2e6c:	00d71a33          	sll	s4,a4,a3
    2e70:	00f8d633          	srl	a2,a7,a5
    2e74:	00d896b3          	sll	a3,a7,a3
    2e78:	00ca6a33          	or	s4,s4,a2
    2e7c:	00d036b3          	snez	a3,a3
    2e80:	00f757b3          	srl	a5,a4,a5
    2e84:	00da6a33          	or	s4,s4,a3
    2e88:	95be                	add	a1,a1,a5
    2e8a:	9ed2                	add	t4,t4,s4
    2e8c:	014eba33          	sltu	s4,t4,s4
    2e90:	8976                	mv	s2,t4
    2e92:	9a2e                	add	s4,s4,a1
    2e94:	008a1793          	slli	a5,s4,0x8
    2e98:	2007d063          	bgez	a5,3098 <__subdf3+0x396>
    2e9c:	0985                	addi	s3,s3,1
    2e9e:	7ff00793          	li	a5,2047
    2ea2:	50f98f63          	beq	s3,a5,33c0 <__subdf3+0x6be>
    2ea6:	ff8007b7          	lui	a5,0xff800
    2eaa:	17fd                	addi	a5,a5,-1 # ff7fffff <__top_dmem+0xff76ffff>
    2eac:	00fa77b3          	and	a5,s4,a5
    2eb0:	00195693          	srli	a3,s2,0x1
    2eb4:	00197913          	andi	s2,s2,1
    2eb8:	0126e6b3          	or	a3,a3,s2
    2ebc:	01f79913          	slli	s2,a5,0x1f
    2ec0:	00d96933          	or	s2,s2,a3
    2ec4:	0017da13          	srli	s4,a5,0x1
    2ec8:	8a9d                	andi	a3,a3,7
    2eca:	70068663          	beqz	a3,35d6 <__subdf3+0x8d4>
    2ece:	4789                	li	a5,2
    2ed0:	22f48b63          	beq	s1,a5,3106 <__subdf3+0x404>
    2ed4:	478d                	li	a5,3
    2ed6:	2ef48063          	beq	s1,a5,31b6 <__subdf3+0x4b4>
    2eda:	22049763          	bnez	s1,3108 <__subdf3+0x406>
    2ede:	00f97793          	andi	a5,s2,15
    2ee2:	4711                	li	a4,4
    2ee4:	4681                	li	a3,0
    2ee6:	22e78163          	beq	a5,a4,3108 <__subdf3+0x406>
    2eea:	00490793          	addi	a5,s2,4
    2eee:	0127b933          	sltu	s2,a5,s2
    2ef2:	9a4a                	add	s4,s4,s2
    2ef4:	4805                	li	a6,1
    2ef6:	893e                	mv	s2,a5
    2ef8:	18069e63          	bnez	a3,3094 <__subdf3+0x392>
    2efc:	008a1793          	slli	a5,s4,0x8
    2f00:	1007d7e3          	bgez	a5,380e <__subdf3+0xb0c>
    2f04:	00198793          	addi	a5,s3,1
    2f08:	7ff00713          	li	a4,2047
    2f0c:	18e78963          	beq	a5,a4,309e <__subdf3+0x39c>
    2f10:	ff800737          	lui	a4,0xff800
    2f14:	177d                	addi	a4,a4,-1 # ff7fffff <__top_dmem+0xff76ffff>
    2f16:	00ea7733          	and	a4,s4,a4
    2f1a:	7ff7f793          	andi	a5,a5,2047
    2f1e:	00395693          	srli	a3,s2,0x3
    2f22:	01d71913          	slli	s2,a4,0x1d
    2f26:	0726                	slli	a4,a4,0x9
    2f28:	00d96933          	or	s2,s2,a3
    2f2c:	8331                	srli	a4,a4,0xc
    2f2e:	00147593          	andi	a1,s0,1
    2f32:	07d2                	slli	a5,a5,0x14
    2f34:	05fe                	slli	a1,a1,0x1f
    2f36:	8fd9                	or	a5,a5,a4
    2f38:	8fcd                	or	a5,a5,a1
    2f3a:	854a                	mv	a0,s2
    2f3c:	85be                	mv	a1,a5
    2f3e:	ee0805e3          	beqz	a6,2e28 <__subdf3+0x126>
    2f42:	00182073          	csrs	fflags,a6
    2f46:	40f2                	lw	ra,28(sp)
    2f48:	4462                	lw	s0,24(sp)
    2f4a:	44d2                	lw	s1,20(sp)
    2f4c:	4942                	lw	s2,16(sp)
    2f4e:	49b2                	lw	s3,12(sp)
    2f50:	4a22                	lw	s4,8(sp)
    2f52:	6105                	addi	sp,sp,32
    2f54:	8082                	ret
    2f56:	011767b3          	or	a5,a4,a7
    2f5a:	80198313          	addi	t1,s3,-2047
    2f5e:	ebd9                	bnez	a5,2ff4 <__subdf3+0x2f2>
    2f60:	0016ce13          	xori	t3,a3,1
    2f64:	33c40363          	beq	s0,t3,328a <__subdf3+0x588>
    2f68:	14030563          	beqz	t1,30b2 <__subdf3+0x3b0>
    2f6c:	30099c63          	bnez	s3,3284 <__subdf3+0x582>
    2f70:	7ff00793          	li	a5,2047
    2f74:	01d5e6b3          	or	a3,a1,t4
    2f78:	4a068e63          	beqz	a3,3434 <__subdf3+0x732>
    2f7c:	fff78693          	addi	a3,a5,-1
    2f80:	64068d63          	beqz	a3,35da <__subdf3+0x8d8>
    2f84:	7ff00613          	li	a2,2047
    2f88:	5cc78163          	beq	a5,a2,354a <__subdf3+0x848>
    2f8c:	03800793          	li	a5,56
    2f90:	8472                	mv	s0,t3
    2f92:	4905                	li	s2,1
    2f94:	02d7c763          	blt	a5,a3,2fc2 <__subdf3+0x2c0>
    2f98:	47fd                	li	a5,31
    2f9a:	58d7c363          	blt	a5,a3,3520 <__subdf3+0x81e>
    2f9e:	02000793          	li	a5,32
    2fa2:	8f95                	sub	a5,a5,a3
    2fa4:	00f59933          	sll	s2,a1,a5
    2fa8:	00ded633          	srl	a2,t4,a3
    2fac:	00fe97b3          	sll	a5,t4,a5
    2fb0:	00c96933          	or	s2,s2,a2
    2fb4:	00f037b3          	snez	a5,a5
    2fb8:	00d5d6b3          	srl	a3,a1,a3
    2fbc:	00f96933          	or	s2,s2,a5
    2fc0:	8f15                	sub	a4,a4,a3
    2fc2:	41288933          	sub	s2,a7,s2
    2fc6:	0128b8b3          	sltu	a7,a7,s2
    2fca:	41170a33          	sub	s4,a4,a7
    2fce:	89c2                	mv	s3,a6
    2fd0:	b3dd                	j	2db6 <__subdf3+0xb4>
    2fd2:	011766b3          	or	a3,a4,a7
    2fd6:	18068363          	beqz	a3,315c <__subdf3+0x45a>
    2fda:	fff78693          	addi	a3,a5,-1
    2fde:	4c068263          	beqz	a3,34a2 <__subdf3+0x7a0>
    2fe2:	20678563          	beq	a5,t1,31ec <__subdf3+0x4ea>
    2fe6:	03800793          	li	a5,56
    2fea:	4905                	li	s2,1
    2fec:	dad7cfe3          	blt	a5,a3,2daa <__subdf3+0xa8>
    2ff0:	87b6                	mv	a5,a3
    2ff2:	b379                	j	2d80 <__subdf3+0x7e>
    2ff4:	8e36                	mv	t3,a3
    2ff6:	2ed40d63          	beq	s0,a3,32f0 <__subdf3+0x5ee>
    2ffa:	0a030c63          	beqz	t1,30b2 <__subdf3+0x3b0>
    2ffe:	f60989e3          	beqz	s3,2f70 <__subdf3+0x26e>
    3002:	01675813          	srli	a6,a4,0x16
    3006:	00184813          	xori	a6,a6,1
    300a:	00187813          	andi	a6,a6,1
    300e:	85ba                	mv	a1,a4
    3010:	8ec6                	mv	t4,a7
    3012:	7ff00793          	li	a5,2047
    3016:	8436                	mv	s0,a3
    3018:	0812                	slli	a6,a6,0x4
    301a:	a299                	j	3160 <__subdf3+0x45e>
    301c:	24698763          	beq	s3,t1,326a <__subdf3+0x568>
    3020:	03800693          	li	a3,56
    3024:	4a05                	li	s4,1
    3026:	e6f6c2e3          	blt	a3,a5,2e8a <__subdf3+0x188>
    302a:	008006b7          	lui	a3,0x800
    302e:	8f55                	or	a4,a4,a3
    3030:	bd05                	j	2e60 <__subdf3+0x15e>
    3032:	00191693          	slli	a3,s2,0x1
    3036:	001a1793          	slli	a5,s4,0x1
    303a:	01f95713          	srli	a4,s2,0x1f
    303e:	0076f613          	andi	a2,a3,7
    3042:	97ba                	add	a5,a5,a4
    3044:	1c060063          	beqz	a2,3204 <__subdf3+0x502>
    3048:	4709                	li	a4,2
    304a:	00797613          	andi	a2,s2,7
    304e:	48e48063          	beq	s1,a4,34ce <__subdf3+0x7cc>
    3052:	470d                	li	a4,3
    3054:	46e48263          	beq	s1,a4,34b8 <__subdf3+0x7b6>
    3058:	34049e63          	bnez	s1,33b4 <__subdf3+0x6b2>
    305c:	00f6f713          	andi	a4,a3,15
    3060:	4591                	li	a1,4
    3062:	5ab70063          	beq	a4,a1,3602 <__subdf3+0x900>
    3066:	ffc6b693          	sltiu	a3,a3,-4
    306a:	0016b693          	seqz	a3,a3
    306e:	97b6                	add	a5,a5,a3
    3070:	00779713          	slli	a4,a5,0x7
    3074:	34074463          	bltz	a4,33bc <__subdf3+0x6ba>
    3078:	2e060c63          	beqz	a2,3370 <__subdf3+0x66e>
    307c:	00f97793          	andi	a5,s2,15
    3080:	4711                	li	a4,4
    3082:	2ee78763          	beq	a5,a4,3370 <__subdf3+0x66e>
    3086:	00490793          	addi	a5,s2,4
    308a:	0127b933          	sltu	s2,a5,s2
    308e:	9a4a                	add	s4,s4,s2
    3090:	4981                	li	s3,0
    3092:	893e                	mv	s2,a5
    3094:	480d                	li	a6,3
    3096:	b59d                	j	2efc <__subdf3+0x1fa>
    3098:	00797693          	andi	a3,s2,7
    309c:	b53d                	j	2eca <__subdf3+0x1c8>
    309e:	e4fd                	bnez	s1,318c <__subdf3+0x48a>
    30a0:	00586813          	ori	a6,a6,5
    30a4:	00147593          	andi	a1,s0,1
    30a8:	7ff00793          	li	a5,2047
    30ac:	4701                	li	a4,0
    30ae:	4901                	li	s2,0
    30b0:	b549                	j	2f32 <__subdf3+0x230>
    30b2:	00198793          	addi	a5,s3,1
    30b6:	7fe7f793          	andi	a5,a5,2046
    30ba:	18079363          	bnez	a5,3240 <__subdf3+0x53e>
    30be:	01176933          	or	s2,a4,a7
    30c2:	01d5e6b3          	or	a3,a1,t4
    30c6:	38099063          	bnez	s3,3446 <__subdf3+0x744>
    30ca:	26068e63          	beqz	a3,3346 <__subdf3+0x644>
    30ce:	28090163          	beqz	s2,3350 <__subdf3+0x64e>
    30d2:	411e86b3          	sub	a3,t4,a7
    30d6:	00deb633          	sltu	a2,t4,a3
    30da:	40e587b3          	sub	a5,a1,a4
    30de:	8f91                	sub	a5,a5,a2
    30e0:	00879613          	slli	a2,a5,0x8
    30e4:	5a065263          	bgez	a2,3688 <__subdf3+0x986>
    30e8:	41d88eb3          	sub	t4,a7,t4
    30ec:	8f0d                	sub	a4,a4,a1
    30ee:	01d8b8b3          	sltu	a7,a7,t4
    30f2:	8976                	mv	s2,t4
    30f4:	41170a33          	sub	s4,a4,a7
    30f8:	8472                	mv	s0,t3
    30fa:	012a67b3          	or	a5,s4,s2
    30fe:	d20780e3          	beqz	a5,2e1e <__subdf3+0x11c>
    3102:	4801                	li	a6,0
    3104:	aa11                	j	3218 <__subdf3+0x516>
    3106:	e069                	bnez	s0,31c8 <__subdf3+0x4c6>
    3108:	4805                	li	a6,1
    310a:	bbcd                	j	2efc <__subdf3+0x1fa>
    310c:	854a                	mv	a0,s2
    310e:	3dd000ef          	jal	3cea <__clzsi2>
    3112:	01850793          	addi	a5,a0,24
    3116:	46fd                	li	a3,31
    3118:	caf6dfe3          	bge	a3,a5,2dd6 <__subdf3+0xd4>
    311c:	1561                	addi	a0,a0,-8
    311e:	00a91733          	sll	a4,s2,a0
    3122:	2737cf63          	blt	a5,s3,33a0 <__subdf3+0x69e>
    3126:	41378933          	sub	s2,a5,s3
    312a:	00190793          	addi	a5,s2,1
    312e:	52f6d663          	bge	a3,a5,365a <__subdf3+0x958>
    3132:	1905                	addi	s2,s2,-31
    3134:	02000693          	li	a3,32
    3138:	01275933          	srl	s2,a4,s2
    313c:	00d78c63          	beq	a5,a3,3154 <__subdf3+0x452>
    3140:	04000693          	li	a3,64
    3144:	40f687b3          	sub	a5,a3,a5
    3148:	00f71733          	sll	a4,a4,a5
    314c:	00e03733          	snez	a4,a4
    3150:	00e96933          	or	s2,s2,a4
    3154:	87ca                	mv	a5,s2
    3156:	cc0784e3          	beqz	a5,2e1e <__subdf3+0x11c>
    315a:	bde1                	j	3032 <__subdf3+0x330>
    315c:	08678863          	beq	a5,t1,31ec <__subdf3+0x4ea>
    3160:	01d59913          	slli	s2,a1,0x1d
    3164:	003ede93          	srli	t4,t4,0x3
    3168:	7ff00693          	li	a3,2047
    316c:	01d96933          	or	s2,s2,t4
    3170:	0035d713          	srli	a4,a1,0x3
    3174:	02d79a63          	bne	a5,a3,31a8 <__subdf3+0x4a6>
    3178:	00e96733          	or	a4,s2,a4
    317c:	d705                	beqz	a4,30a4 <__subdf3+0x3a2>
    317e:	4581                	li	a1,0
    3180:	7ff00793          	li	a5,2047
    3184:	00080737          	lui	a4,0x80
    3188:	4901                	li	s2,0
    318a:	b365                	j	2f32 <__subdf3+0x230>
    318c:	478d                	li	a5,3
    318e:	34f48b63          	beq	s1,a5,34e4 <__subdf3+0x7e2>
    3192:	4789                	li	a5,2
    3194:	00586813          	ori	a6,a6,5
    3198:	2ef48563          	beq	s1,a5,3482 <__subdf3+0x780>
    319c:	20000737          	lui	a4,0x20000
    31a0:	597d                	li	s2,-1
    31a2:	177d                	addi	a4,a4,-1 # 1fffffff <__top_dmem+0x1ff6ffff>
    31a4:	7fe00793          	li	a5,2046
    31a8:	0732                	slli	a4,a4,0xc
    31aa:	8331                	srli	a4,a4,0xc
    31ac:	7ff7f793          	andi	a5,a5,2047
    31b0:	00147593          	andi	a1,s0,1
    31b4:	bbbd                	j	2f32 <__subdf3+0x230>
    31b6:	ec19                	bnez	s0,31d4 <__subdf3+0x4d2>
    31b8:	00890793          	addi	a5,s2,8
    31bc:	0127b933          	sltu	s2,a5,s2
    31c0:	9a4a                	add	s4,s4,s2
    31c2:	4805                	li	a6,1
    31c4:	893e                	mv	s2,a5
    31c6:	bb1d                	j	2efc <__subdf3+0x1fa>
    31c8:	00890793          	addi	a5,s2,8
    31cc:	0127b933          	sltu	s2,a5,s2
    31d0:	9a4a                	add	s4,s4,s2
    31d2:	893e                	mv	s2,a5
    31d4:	8822                	mv	a6,s0
    31d6:	b31d                	j	2efc <__subdf3+0x1fa>
    31d8:	ff800a37          	lui	s4,0xff800
    31dc:	1a7d                	addi	s4,s4,-1 # ff7fffff <__top_dmem+0xff76ffff>
    31de:	00797693          	andi	a3,s2,7
    31e2:	40f989b3          	sub	s3,s3,a5
    31e6:	01477a33          	and	s4,a4,s4
    31ea:	b1c5                	j	2eca <__subdf3+0x1c8>
    31ec:	01d5e733          	or	a4,a1,t4
    31f0:	ea070ae3          	beqz	a4,30a4 <__subdf3+0x3a2>
    31f4:	0165d813          	srli	a6,a1,0x16
    31f8:	00184813          	xori	a6,a6,1
    31fc:	00187813          	andi	a6,a6,1
    3200:	0812                	slli	a6,a6,0x4
    3202:	bfb9                	j	3160 <__subdf3+0x45e>
    3204:	00779713          	slli	a4,a5,0x7
    3208:	4801                	li	a6,0
    320a:	00797613          	andi	a2,s2,7
    320e:	14075363          	bgez	a4,3354 <__subdf3+0x652>
    3212:	4981                	li	s3,0
    3214:	ca061de3          	bnez	a2,2ece <__subdf3+0x1cc>
    3218:	ff800737          	lui	a4,0xff800
    321c:	177d                	addi	a4,a4,-1 # ff7fffff <__top_dmem+0xff76ffff>
    321e:	008a1693          	slli	a3,s4,0x8
    3222:	00ea7733          	and	a4,s4,a4
    3226:	4785                	li	a5,1
    3228:	ce06cbe3          	bltz	a3,2f1e <__subdf3+0x21c>
    322c:	01da1713          	slli	a4,s4,0x1d
    3230:	00395793          	srli	a5,s2,0x3
    3234:	00f76933          	or	s2,a4,a5
    3238:	003a5713          	srli	a4,s4,0x3
    323c:	4781                	li	a5,0
    323e:	b7ad                	j	31a8 <__subdf3+0x4a6>
    3240:	411e87b3          	sub	a5,t4,a7
    3244:	00feb6b3          	sltu	a3,t4,a5
    3248:	40e58a33          	sub	s4,a1,a4
    324c:	40da0a33          	sub	s4,s4,a3
    3250:	008a1693          	slli	a3,s4,0x8
    3254:	893e                	mv	s2,a5
    3256:	1c06c563          	bltz	a3,3420 <__subdf3+0x71e>
    325a:	0147e7b3          	or	a5,a5,s4
    325e:	b60795e3          	bnez	a5,2dc8 <__subdf3+0xc6>
    3262:	14f9                	addi	s1,s1,-2 # 7fffe <_etext+0x7c13a>
    3264:	0014b493          	seqz	s1,s1
    3268:	be6d                	j	2e22 <__subdf3+0x120>
    326a:	01d5e7b3          	or	a5,a1,t4
    326e:	cf81                	beqz	a5,3286 <__subdf3+0x584>
    3270:	0165d813          	srli	a6,a1,0x16
    3274:	00184813          	xori	a6,a6,1
    3278:	00187813          	andi	a6,a6,1
    327c:	0812                	slli	a6,a6,0x4
    327e:	7ff00793          	li	a5,2047
    3282:	bdf9                	j	3160 <__subdf3+0x45e>
    3284:	8472                	mv	s0,t3
    3286:	4801                	li	a6,0
    3288:	bd31                	j	30a4 <__subdf3+0x3a2>
    328a:	06030563          	beqz	t1,32f4 <__subdf3+0x5f2>
    328e:	fe099ce3          	bnez	s3,3286 <__subdf3+0x584>
    3292:	7ff00793          	li	a5,2047
    3296:	01d5e6b3          	or	a3,a1,t4
    329a:	34068c63          	beqz	a3,35f2 <__subdf3+0x8f0>
    329e:	fff78693          	addi	a3,a5,-1
    32a2:	1c068363          	beqz	a3,3468 <__subdf3+0x766>
    32a6:	7ff00613          	li	a2,2047
    32aa:	38c78a63          	beq	a5,a2,363e <__subdf3+0x93c>
    32ae:	03800793          	li	a5,56
    32b2:	4a05                	li	s4,1
    32b4:	02d7c763          	blt	a5,a3,32e2 <__subdf3+0x5e0>
    32b8:	47fd                	li	a5,31
    32ba:	34d7cd63          	blt	a5,a3,3614 <__subdf3+0x912>
    32be:	02000793          	li	a5,32
    32c2:	8f95                	sub	a5,a5,a3
    32c4:	00f59a33          	sll	s4,a1,a5
    32c8:	00ded633          	srl	a2,t4,a3
    32cc:	00fe97b3          	sll	a5,t4,a5
    32d0:	00ca6a33          	or	s4,s4,a2
    32d4:	00f037b3          	snez	a5,a5
    32d8:	00d5d6b3          	srl	a3,a1,a3
    32dc:	00fa6a33          	or	s4,s4,a5
    32e0:	9736                	add	a4,a4,a3
    32e2:	98d2                	add	a7,a7,s4
    32e4:	0148ba33          	sltu	s4,a7,s4
    32e8:	8946                	mv	s2,a7
    32ea:	9a3a                	add	s4,s4,a4
    32ec:	89c2                	mv	s3,a6
    32ee:	b65d                	j	2e94 <__subdf3+0x192>
    32f0:	0e031663          	bnez	t1,33dc <__subdf3+0x6da>
    32f4:	00198793          	addi	a5,s3,1
    32f8:	7fe7f693          	andi	a3,a5,2046
    32fc:	eef5                	bnez	a3,33f8 <__subdf3+0x6f6>
    32fe:	01d5e633          	or	a2,a1,t4
    3302:	26099363          	bnez	s3,3568 <__subdf3+0x866>
    3306:	30060463          	beqz	a2,360e <__subdf3+0x90c>
    330a:	011767b3          	or	a5,a4,a7
    330e:	c3a9                	beqz	a5,3350 <__subdf3+0x64e>
    3310:	98f6                	add	a7,a7,t4
    3312:	972e                	add	a4,a4,a1
    3314:	01d8beb3          	sltu	t4,a7,t4
    3318:	01d70a33          	add	s4,a4,t4
    331c:	008a1793          	slli	a5,s4,0x8
    3320:	8946                	mv	s2,a7
    3322:	dc07dce3          	bgez	a5,30fa <__subdf3+0x3f8>
    3326:	ff8007b7          	lui	a5,0xff800
    332a:	17fd                	addi	a5,a5,-1 # ff7fffff <__top_dmem+0xff76ffff>
    332c:	00fa77b3          	and	a5,s4,a5
    3330:	01d79913          	slli	s2,a5,0x1d
    3334:	0038d893          	srli	a7,a7,0x3
    3338:	0037d713          	srli	a4,a5,0x3
    333c:	0128e933          	or	s2,a7,s2
    3340:	4801                	li	a6,0
    3342:	4785                	li	a5,1
    3344:	b595                	j	31a8 <__subdf3+0x4a6>
    3346:	f0090ee3          	beqz	s2,3262 <__subdf3+0x560>
    334a:	85ba                	mv	a1,a4
    334c:	8ec6                	mv	t4,a7
    334e:	8472                	mv	s0,t3
    3350:	8a2e                	mv	s4,a1
    3352:	8976                	mv	s2,t4
    3354:	00797793          	andi	a5,s2,7
    3358:	da0785e3          	beqz	a5,3102 <__subdf3+0x400>
    335c:	478d                	li	a5,3
    335e:	4cf48863          	beq	s1,a5,382e <__subdf3+0xb2c>
    3362:	0097c763          	blt	a5,s1,3370 <__subdf3+0x66e>
    3366:	4a048b63          	beqz	s1,381c <__subdf3+0xb1a>
    336a:	4789                	li	a5,2
    336c:	4af48563          	beq	s1,a5,3816 <__subdf3+0xb14>
    3370:	4981                	li	s3,0
    3372:	480d                	li	a6,3
    3374:	b661                	j	2efc <__subdf3+0x1fa>
    3376:	fe078693          	addi	a3,a5,-32
    337a:	02000613          	li	a2,32
    337e:	00d756b3          	srl	a3,a4,a3
    3382:	00c78a63          	beq	a5,a2,3396 <__subdf3+0x694>
    3386:	04000613          	li	a2,64
    338a:	40f607b3          	sub	a5,a2,a5
    338e:	00f717b3          	sll	a5,a4,a5
    3392:	00f8e8b3          	or	a7,a7,a5
    3396:	01103933          	snez	s2,a7
    339a:	00d96933          	or	s2,s2,a3
    339e:	b431                	j	2daa <__subdf3+0xa8>
    33a0:	ff8006b7          	lui	a3,0xff800
    33a4:	16fd                	addi	a3,a3,-1 # ff7fffff <__top_dmem+0xff76ffff>
    33a6:	40f987b3          	sub	a5,s3,a5
    33aa:	00d775b3          	and	a1,a4,a3
    33ae:	4e81                	li	t4,0
    33b0:	4801                	li	a6,0
    33b2:	b37d                	j	3160 <__subdf3+0x45e>
    33b4:	00779713          	slli	a4,a5,0x7
    33b8:	fa075ce3          	bgez	a4,3370 <__subdf3+0x66e>
    33bc:	4805                	li	a6,1
    33be:	bd91                	j	3212 <__subdf3+0x510>
    33c0:	14048e63          	beqz	s1,351c <__subdf3+0x81a>
    33c4:	478d                	li	a5,3
    33c6:	14f48963          	beq	s1,a5,3518 <__subdf3+0x816>
    33ca:	4789                	li	a5,2
    33cc:	32f48363          	beq	s1,a5,36f2 <__subdf3+0x9f0>
    33d0:	5a7d                	li	s4,-1
    33d2:	597d                	li	s2,-1
    33d4:	7fe00993          	li	s3,2046
    33d8:	4815                	li	a6,5
    33da:	b62d                	j	2f04 <__subdf3+0x202>
    33dc:	ea098be3          	beqz	s3,3292 <__subdf3+0x590>
    33e0:	01675813          	srli	a6,a4,0x16
    33e4:	00184813          	xori	a6,a6,1
    33e8:	00187813          	andi	a6,a6,1
    33ec:	85ba                	mv	a1,a4
    33ee:	8ec6                	mv	t4,a7
    33f0:	7ff00793          	li	a5,2047
    33f4:	0812                	slli	a6,a6,0x4
    33f6:	b3ad                	j	3160 <__subdf3+0x45e>
    33f8:	7ff00693          	li	a3,2047
    33fc:	fcd782e3          	beq	a5,a3,33c0 <__subdf3+0x6be>
    3400:	011e86b3          	add	a3,t4,a7
    3404:	01d6beb3          	sltu	t4,a3,t4
    3408:	972e                	add	a4,a4,a1
    340a:	9776                	add	a4,a4,t4
    340c:	8285                	srli	a3,a3,0x1
    340e:	01f71913          	slli	s2,a4,0x1f
    3412:	00d96933          	or	s2,s2,a3
    3416:	00175a13          	srli	s4,a4,0x1
    341a:	8a9d                	andi	a3,a3,7
    341c:	89be                	mv	s3,a5
    341e:	b475                	j	2eca <__subdf3+0x1c8>
    3420:	41d88eb3          	sub	t4,a7,t4
    3424:	8f0d                	sub	a4,a4,a1
    3426:	01d8b8b3          	sltu	a7,a7,t4
    342a:	8976                	mv	s2,t4
    342c:	41170a33          	sub	s4,a4,a7
    3430:	8472                	mv	s0,t3
    3432:	ba59                	j	2dc8 <__subdf3+0xc6>
    3434:	7ff00693          	li	a3,2047
    3438:	10d78963          	beq	a5,a3,354a <__subdf3+0x848>
    343c:	85ba                	mv	a1,a4
    343e:	8ec6                	mv	t4,a7
    3440:	8472                	mv	s0,t3
    3442:	4801                	li	a6,0
    3444:	bb31                	j	3160 <__subdf3+0x45e>
    3446:	7ff00313          	li	t1,2047
    344a:	20698e63          	beq	s3,t1,3666 <__subdf3+0x964>
    344e:	28680363          	beq	a6,t1,36d4 <__subdf3+0x9d2>
    3452:	ca9d                	beqz	a3,3488 <__subdf3+0x786>
    3454:	2c090463          	beqz	s2,371c <__subdf3+0xa1a>
    3458:	883e                	mv	a6,a5
    345a:	4581                	li	a1,0
    345c:	7ff00793          	li	a5,2047
    3460:	00080737          	lui	a4,0x80
    3464:	4901                	li	s2,0
    3466:	b4f1                	j	2f32 <__subdf3+0x230>
    3468:	98f6                	add	a7,a7,t4
    346a:	972e                	add	a4,a4,a1
    346c:	01d8beb3          	sltu	t4,a7,t4
    3470:	01d70a33          	add	s4,a4,t4
    3474:	008a1793          	slli	a5,s4,0x8
    3478:	8946                	mv	s2,a7
    347a:	1407dd63          	bgez	a5,35d4 <__subdf3+0x8d2>
    347e:	4989                	li	s3,2
    3480:	b41d                	j	2ea6 <__subdf3+0x1a4>
    3482:	d0040de3          	beqz	s0,319c <__subdf3+0x49a>
    3486:	b939                	j	30a4 <__subdf3+0x3a2>
    3488:	22090663          	beqz	s2,36b4 <__subdf3+0x9b2>
    348c:	00361693          	slli	a3,a2,0x3
    3490:	01d71913          	slli	s2,a4,0x1d
    3494:	828d                	srli	a3,a3,0x3
    3496:	00d96933          	or	s2,s2,a3
    349a:	830d                	srli	a4,a4,0x3
    349c:	8472                	mv	s0,t3
    349e:	883e                	mv	a6,a5
    34a0:	b9e1                	j	3178 <__subdf3+0x476>
    34a2:	411e88b3          	sub	a7,t4,a7
    34a6:	40e58733          	sub	a4,a1,a4
    34aa:	011ebeb3          	sltu	t4,t4,a7
    34ae:	8946                	mv	s2,a7
    34b0:	41d70a33          	sub	s4,a4,t4
    34b4:	4985                	li	s3,1
    34b6:	b201                	j	2db6 <__subdf3+0xb4>
    34b8:	cc65                	beqz	s0,35b0 <__subdf3+0x8ae>
    34ba:	00779713          	slli	a4,a5,0x7
    34be:	0c074563          	bltz	a4,3588 <__subdf3+0x886>
    34c2:	ea0607e3          	beqz	a2,3370 <__subdf3+0x66e>
    34c6:	4981                	li	s3,0
    34c8:	4405                	li	s0,1
    34ca:	480d                	li	a6,3
    34cc:	bc05                	j	2efc <__subdf3+0x1fa>
    34ce:	ec5d                	bnez	s0,358c <__subdf3+0x88a>
    34d0:	00779713          	slli	a4,a5,0x7
    34d4:	ee0744e3          	bltz	a4,33bc <__subdf3+0x6ba>
    34d8:	e8060ce3          	beqz	a2,3370 <__subdf3+0x66e>
    34dc:	4981                	li	s3,0
    34de:	4401                	li	s0,0
    34e0:	480d                	li	a6,3
    34e2:	bc29                	j	2efc <__subdf3+0x1fa>
    34e4:	00586813          	ori	a6,a6,5
    34e8:	ba040ee3          	beqz	s0,30a4 <__subdf3+0x3a2>
    34ec:	b945                	j	319c <__subdf3+0x49a>
    34ee:	fe078693          	addi	a3,a5,-32
    34f2:	02000613          	li	a2,32
    34f6:	00d756b3          	srl	a3,a4,a3
    34fa:	00c78a63          	beq	a5,a2,350e <__subdf3+0x80c>
    34fe:	04000613          	li	a2,64
    3502:	40f607b3          	sub	a5,a2,a5
    3506:	00f717b3          	sll	a5,a4,a5
    350a:	00f8e8b3          	or	a7,a7,a5
    350e:	01103a33          	snez	s4,a7
    3512:	00da6a33          	or	s4,s4,a3
    3516:	ba95                	j	2e8a <__subdf3+0x188>
    3518:	ea041ce3          	bnez	s0,33d0 <__subdf3+0x6ce>
    351c:	4815                	li	a6,5
    351e:	b659                	j	30a4 <__subdf3+0x3a2>
    3520:	fe068793          	addi	a5,a3,-32
    3524:	02000613          	li	a2,32
    3528:	00f5d7b3          	srl	a5,a1,a5
    352c:	00c68a63          	beq	a3,a2,3540 <__subdf3+0x83e>
    3530:	04000613          	li	a2,64
    3534:	40d606b3          	sub	a3,a2,a3
    3538:	00d596b3          	sll	a3,a1,a3
    353c:	00deeeb3          	or	t4,t4,a3
    3540:	01d03933          	snez	s2,t4
    3544:	00f96933          	or	s2,s2,a5
    3548:	bcad                	j	2fc2 <__subdf3+0x2c0>
    354a:	011766b3          	or	a3,a4,a7
    354e:	d2068be3          	beqz	a3,3284 <__subdf3+0x582>
    3552:	01675813          	srli	a6,a4,0x16
    3556:	00184813          	xori	a6,a6,1
    355a:	00187813          	andi	a6,a6,1
    355e:	0812                	slli	a6,a6,0x4
    3560:	85ba                	mv	a1,a4
    3562:	8ec6                	mv	t4,a7
    3564:	8472                	mv	s0,t3
    3566:	beed                	j	3160 <__subdf3+0x45e>
    3568:	7ff00793          	li	a5,2047
    356c:	14f98b63          	beq	s3,a5,36c2 <__subdf3+0x9c0>
    3570:	1af80a63          	beq	a6,a5,3724 <__subdf3+0xa22>
    3574:	011767b3          	or	a5,a4,a7
    3578:	12061863          	bnez	a2,36a8 <__subdf3+0x9a6>
    357c:	85ba                	mv	a1,a4
    357e:	8ec6                	mv	t4,a7
    3580:	8836                	mv	a6,a3
    3582:	7ff00793          	li	a5,2047
    3586:	bee9                	j	3160 <__subdf3+0x45e>
    3588:	8822                	mv	a6,s0
    358a:	b161                	j	3212 <__subdf3+0x510>
    358c:	ff86b713          	sltiu	a4,a3,-8
    3590:	00173713          	seqz	a4,a4
    3594:	97ba                	add	a5,a5,a4
    3596:	00779713          	slli	a4,a5,0x7
    359a:	fe0747e3          	bltz	a4,3588 <__subdf3+0x886>
    359e:	dc0609e3          	beqz	a2,3370 <__subdf3+0x66e>
    35a2:	00890793          	addi	a5,s2,8
    35a6:	0127b933          	sltu	s2,a5,s2
    35aa:	9a4a                	add	s4,s4,s2
    35ac:	893e                	mv	s2,a5
    35ae:	bf21                	j	34c6 <__subdf3+0x7c4>
    35b0:	ff86b713          	sltiu	a4,a3,-8
    35b4:	00173713          	seqz	a4,a4
    35b8:	97ba                	add	a5,a5,a4
    35ba:	00779713          	slli	a4,a5,0x7
    35be:	de074fe3          	bltz	a4,33bc <__subdf3+0x6ba>
    35c2:	da0607e3          	beqz	a2,3370 <__subdf3+0x66e>
    35c6:	00890793          	addi	a5,s2,8
    35ca:	0127b933          	sltu	s2,a5,s2
    35ce:	9a4a                	add	s4,s4,s2
    35d0:	893e                	mv	s2,a5
    35d2:	b729                	j	34dc <__subdf3+0x7da>
    35d4:	4985                	li	s3,1
    35d6:	4801                	li	a6,0
    35d8:	b215                	j	2efc <__subdf3+0x1fa>
    35da:	41d88eb3          	sub	t4,a7,t4
    35de:	8f0d                	sub	a4,a4,a1
    35e0:	01d8b8b3          	sltu	a7,a7,t4
    35e4:	8976                	mv	s2,t4
    35e6:	41170a33          	sub	s4,a4,a7
    35ea:	8472                	mv	s0,t3
    35ec:	4985                	li	s3,1
    35ee:	fc8ff06f          	j	2db6 <__subdf3+0xb4>
    35f2:	7ff00693          	li	a3,2047
    35f6:	04d78463          	beq	a5,a3,363e <__subdf3+0x93c>
    35fa:	85ba                	mv	a1,a4
    35fc:	8ec6                	mv	t4,a7
    35fe:	4801                	li	a6,0
    3600:	b685                	j	3160 <__subdf3+0x45e>
    3602:	00779713          	slli	a4,a5,0x7
    3606:	a60759e3          	bgez	a4,3078 <__subdf3+0x376>
    360a:	4805                	li	a6,1
    360c:	b119                	j	3212 <__subdf3+0x510>
    360e:	8a3a                	mv	s4,a4
    3610:	8946                	mv	s2,a7
    3612:	b4e5                	j	30fa <__subdf3+0x3f8>
    3614:	fe068793          	addi	a5,a3,-32
    3618:	02000613          	li	a2,32
    361c:	00f5d7b3          	srl	a5,a1,a5
    3620:	00c68a63          	beq	a3,a2,3634 <__subdf3+0x932>
    3624:	04000613          	li	a2,64
    3628:	40d606b3          	sub	a3,a2,a3
    362c:	00d596b3          	sll	a3,a1,a3
    3630:	00deeeb3          	or	t4,t4,a3
    3634:	01d03a33          	snez	s4,t4
    3638:	00fa6a33          	or	s4,s4,a5
    363c:	b15d                	j	32e2 <__subdf3+0x5e0>
    363e:	011766b3          	or	a3,a4,a7
    3642:	c40682e3          	beqz	a3,3286 <__subdf3+0x584>
    3646:	01675813          	srli	a6,a4,0x16
    364a:	00184813          	xori	a6,a6,1
    364e:	00187813          	andi	a6,a6,1
    3652:	0812                	slli	a6,a6,0x4
    3654:	85ba                	mv	a1,a4
    3656:	8ec6                	mv	t4,a7
    3658:	b621                	j	3160 <__subdf3+0x45e>
    365a:	02000693          	li	a3,32
    365e:	8e9d                	sub	a3,a3,a5
    3660:	4601                	li	a2,0
    3662:	fa4ff06f          	j	2e06 <__subdf3+0x104>
    3666:	ead1                	bnez	a3,36fa <__subdf3+0x9f8>
    3668:	e33810e3          	bne	a6,s3,3488 <__subdf3+0x786>
    366c:	04090463          	beqz	s2,36b4 <__subdf3+0x9b2>
    3670:	00971693          	slli	a3,a4,0x9
    3674:	47c1                	li	a5,16
    3676:	e006dbe3          	bgez	a3,348c <__subdf3+0x78a>
    367a:	85ba                	mv	a1,a4
    367c:	8ec6                	mv	t4,a7
    367e:	7ff00793          	li	a5,2047
    3682:	8472                	mv	s0,t3
    3684:	4801                	li	a6,0
    3686:	bce9                	j	3160 <__subdf3+0x45e>
    3688:	00f6e733          	or	a4,a3,a5
    368c:	bc070be3          	beqz	a4,3262 <__subdf3+0x560>
    3690:	85be                	mv	a1,a5
    3692:	8eb6                	mv	t4,a3
    3694:	b975                	j	3350 <__subdf3+0x64e>
    3696:	00959793          	slli	a5,a1,0x9
    369a:	0e07c363          	bltz	a5,3780 <__subdf3+0xa7e>
    369e:	11380863          	beq	a6,s3,37ae <__subdf3+0xaac>
    36a2:	46c1                	li	a3,16
    36a4:	011767b3          	or	a5,a4,a7
    36a8:	8836                	mv	a6,a3
    36aa:	ac079ae3          	bnez	a5,317e <__subdf3+0x47c>
    36ae:	7ff00793          	li	a5,2047
    36b2:	b47d                	j	3160 <__subdf3+0x45e>
    36b4:	4581                	li	a1,0
    36b6:	7ff00793          	li	a5,2047
    36ba:	00080737          	lui	a4,0x80
    36be:	4841                	li	a6,16
    36c0:	b88d                	j	2f32 <__subdf3+0x230>
    36c2:	fa71                	bnez	a2,3696 <__subdf3+0x994>
    36c4:	0d380f63          	beq	a6,s3,37a2 <__subdf3+0xaa0>
    36c8:	85ba                	mv	a1,a4
    36ca:	8ec6                	mv	t4,a7
    36cc:	7ff00793          	li	a5,2047
    36d0:	4801                	li	a6,0
    36d2:	b479                	j	3160 <__subdf3+0x45e>
    36d4:	06091863          	bnez	s2,3744 <__subdf3+0xa42>
    36d8:	def1                	beqz	a3,36b4 <__subdf3+0x9b2>
    36da:	00351913          	slli	s2,a0,0x3
    36de:	01d59713          	slli	a4,a1,0x1d
    36e2:	00395913          	srli	s2,s2,0x3
    36e6:	00e96933          	or	s2,s2,a4
    36ea:	883e                	mv	a6,a5
    36ec:	0035d713          	srli	a4,a1,0x3
    36f0:	b461                	j	3178 <__subdf3+0x476>
    36f2:	cc040fe3          	beqz	s0,33d0 <__subdf3+0x6ce>
    36f6:	4815                	li	a6,5
    36f8:	b275                	j	30a4 <__subdf3+0x3a2>
    36fa:	00959693          	slli	a3,a1,0x9
    36fe:	0406c963          	bltz	a3,3750 <__subdf3+0xa4e>
    3702:	01380463          	beq	a6,s3,370a <__subdf3+0xa08>
    3706:	47c1                	li	a5,16
    3708:	b3b1                	j	3454 <__subdf3+0x752>
    370a:	47c1                	li	a5,16
    370c:	fc0907e3          	beqz	s2,36da <__subdf3+0x9d8>
    3710:	00971793          	slli	a5,a4,0x9
    3714:	fe07d9e3          	bgez	a5,3706 <__subdf3+0xa04>
    3718:	47c1                	li	a5,16
    371a:	bb3d                	j	3458 <__subdf3+0x756>
    371c:	883e                	mv	a6,a5
    371e:	7ff00793          	li	a5,2047
    3722:	bc3d                	j	3160 <__subdf3+0x45e>
    3724:	011767b3          	or	a5,a4,a7
    3728:	ef95                	bnez	a5,3764 <__subdf3+0xa62>
    372a:	4801                	li	a6,0
    372c:	96060ce3          	beqz	a2,30a4 <__subdf3+0x3a2>
    3730:	00351793          	slli	a5,a0,0x3
    3734:	01d59913          	slli	s2,a1,0x1d
    3738:	838d                	srli	a5,a5,0x3
    373a:	00f96933          	or	s2,s2,a5
    373e:	0035d713          	srli	a4,a1,0x3
    3742:	bc1d                	j	3178 <__subdf3+0x476>
    3744:	00971593          	slli	a1,a4,0x9
    3748:	0405d763          	bgez	a1,3796 <__subdf3+0xa94>
    374c:	d69d                	beqz	a3,367a <__subdf3+0x978>
    374e:	b329                	j	3458 <__subdf3+0x756>
    3750:	d13812e3          	bne	a6,s3,3454 <__subdf3+0x752>
    3754:	f80903e3          	beqz	s2,36da <__subdf3+0x9d8>
    3758:	00971693          	slli	a3,a4,0x9
    375c:	ce06cee3          	bltz	a3,3458 <__subdf3+0x756>
    3760:	47c1                	li	a5,16
    3762:	b9cd                	j	3454 <__subdf3+0x752>
    3764:	00971793          	slli	a5,a4,0x9
    3768:	0207db63          	bgez	a5,379e <__subdf3+0xa9c>
    376c:	de31                	beqz	a2,36c8 <__subdf3+0x9c6>
    376e:	8836                	mv	a6,a3
    3770:	4581                	li	a1,0
    3772:	7ff00793          	li	a5,2047
    3776:	00080737          	lui	a4,0x80
    377a:	4901                	li	s2,0
    377c:	fb6ff06f          	j	2f32 <__subdf3+0x230>
    3780:	011767b3          	or	a5,a4,a7
    3784:	f33812e3          	bne	a6,s3,36a8 <__subdf3+0x9a6>
    3788:	d3b1                	beqz	a5,36cc <__subdf3+0x9ca>
    378a:	00971613          	slli	a2,a4,0x9
    378e:	fe0640e3          	bltz	a2,376e <__subdf3+0xa6c>
    3792:	46c1                	li	a3,16
    3794:	bf11                	j	36a8 <__subdf3+0x9a6>
    3796:	47c1                	li	a5,16
    3798:	ce068ae3          	beqz	a3,348c <__subdf3+0x78a>
    379c:	b975                	j	3458 <__subdf3+0x756>
    379e:	46c1                	li	a3,16
    37a0:	bbd1                	j	3574 <__subdf3+0x872>
    37a2:	011767b3          	or	a5,a4,a7
    37a6:	c2079de3          	bnez	a5,33e0 <__subdf3+0x6de>
    37aa:	4801                	li	a6,0
    37ac:	b8e5                	j	30a4 <__subdf3+0x3a2>
    37ae:	011767b3          	or	a5,a4,a7
    37b2:	4841                	li	a6,16
    37b4:	dfb5                	beqz	a5,3730 <__subdf3+0xa2e>
    37b6:	00971613          	slli	a2,a4,0x9
    37ba:	46c1                	li	a3,16
    37bc:	ee0656e3          	bgez	a2,36a8 <__subdf3+0x9a6>
    37c0:	b77d                	j	376e <__subdf3+0xa6c>
    37c2:	8e0788e3          	beqz	a5,30b2 <__subdf3+0x3b0>
    37c6:	413806b3          	sub	a3,a6,s3
    37ca:	87b6                	mv	a5,a3
    37cc:	fa098463          	beqz	s3,2f74 <__subdf3+0x272>
    37d0:	03800793          	li	a5,56
    37d4:	00d7c863          	blt	a5,a3,37e4 <__subdf3+0xae2>
    37d8:	008007b7          	lui	a5,0x800
    37dc:	8ddd                	or	a1,a1,a5
    37de:	8472                	mv	s0,t3
    37e0:	fb8ff06f          	j	2f98 <__subdf3+0x296>
    37e4:	8472                	mv	s0,t3
    37e6:	4905                	li	s2,1
    37e8:	fdaff06f          	j	2fc2 <__subdf3+0x2c0>
    37ec:	b00784e3          	beqz	a5,32f4 <__subdf3+0x5f2>
    37f0:	413806b3          	sub	a3,a6,s3
    37f4:	00099463          	bnez	s3,37fc <__subdf3+0xafa>
    37f8:	87b6                	mv	a5,a3
    37fa:	bc71                	j	3296 <__subdf3+0x594>
    37fc:	03800793          	li	a5,56
    3800:	4a05                	li	s4,1
    3802:	aed7c0e3          	blt	a5,a3,32e2 <__subdf3+0x5e0>
    3806:	008007b7          	lui	a5,0x800
    380a:	8ddd                	or	a1,a1,a5
    380c:	b475                	j	32b8 <__subdf3+0x5b6>
    380e:	85d2                	mv	a1,s4
    3810:	8eca                	mv	t4,s2
    3812:	87ce                	mv	a5,s3
    3814:	b2b1                	j	3160 <__subdf3+0x45e>
    3816:	d80416e3          	bnez	s0,35a2 <__subdf3+0x8a0>
    381a:	b1c9                	j	34dc <__subdf3+0x7da>
    381c:	00f97793          	andi	a5,s2,15
    3820:	4711                	li	a4,4
    3822:	b4e787e3          	beq	a5,a4,3370 <__subdf3+0x66e>
    3826:	4981                	li	s3,0
    3828:	4685                	li	a3,1
    382a:	ec0ff06f          	j	2eea <__subdf3+0x1e8>
    382e:	d8040ce3          	beqz	s0,35c6 <__subdf3+0x8c4>
    3832:	b951                	j	34c6 <__subdf3+0x7c4>

00003834 <__fixdfsi>:
    3834:	86aa                	mv	a3,a0
    3836:	002027f3          	frrm	a5
    383a:	00100637          	lui	a2,0x100
    383e:	0145d793          	srli	a5,a1,0x14
    3842:	fff60713          	addi	a4,a2,-1 # fffff <__top_dmem+0x6ffff>
    3846:	7ff7f513          	andi	a0,a5,2047
    384a:	3fe00813          	li	a6,1022
    384e:	8f6d                	and	a4,a4,a1
    3850:	87b6                	mv	a5,a3
    3852:	81fd                	srli	a1,a1,0x1f
    3854:	00a84963          	blt	a6,a0,3866 <__fixdfsi+0x32>
    3858:	e52d                	bnez	a0,38c2 <__fixdfsi+0x8e>
    385a:	8f55                	or	a4,a4,a3
    385c:	cb25                	beqz	a4,38cc <__fixdfsi+0x98>
    385e:	4785                	li	a5,1
    3860:	0017a073          	csrs	fflags,a5
    3864:	8082                	ret
    3866:	41d00813          	li	a6,1053
    386a:	00a85d63          	bge	a6,a0,3884 <__fixdfsi+0x50>
    386e:	c1a5                	beqz	a1,38ce <__fixdfsi+0x9a>
    3870:	41e00793          	li	a5,1054
    3874:	08f50163          	beq	a0,a5,38f6 <__fixdfsi+0xc2>
    3878:	80000537          	lui	a0,0x80000
    387c:	47c1                	li	a5,16
    387e:	0017a073          	csrs	fflags,a5
    3882:	8082                	ret
    3884:	43300813          	li	a6,1075
    3888:	40a80833          	sub	a6,a6,a0
    388c:	48fd                	li	a7,31
    388e:	8f51                	or	a4,a4,a2
    3890:	0508d663          	bge	a7,a6,38dc <__fixdfsi+0xa8>
    3894:	02000613          	li	a2,32
    3898:	00c80763          	beq	a6,a2,38a6 <__fixdfsi+0x72>
    389c:	c0d50793          	addi	a5,a0,-1011 # 7ffffc0d <__top_dmem+0x7ff6fc0d>
    38a0:	00f717b3          	sll	a5,a4,a5
    38a4:	8fd5                	or	a5,a5,a3
    38a6:	41300693          	li	a3,1043
    38aa:	8e89                	sub	a3,a3,a0
    38ac:	00f037b3          	snez	a5,a5
    38b0:	00d75533          	srl	a0,a4,a3
    38b4:	c199                	beqz	a1,38ba <__fixdfsi+0x86>
    38b6:	40a00533          	neg	a0,a0
    38ba:	d7cd                	beqz	a5,3864 <__fixdfsi+0x30>
    38bc:	0017a073          	csrs	fflags,a5
    38c0:	8082                	ret
    38c2:	4501                	li	a0,0
    38c4:	4785                	li	a5,1
    38c6:	0017a073          	csrs	fflags,a5
    38ca:	8082                	ret
    38cc:	8082                	ret
    38ce:	80000537          	lui	a0,0x80000
    38d2:	157d                	addi	a0,a0,-1 # 7fffffff <__top_dmem+0x7ff6ffff>
    38d4:	47c1                	li	a5,16
    38d6:	0017a073          	csrs	fflags,a5
    38da:	8082                	ret
    38dc:	bed50793          	addi	a5,a0,-1043
    38e0:	00f69633          	sll	a2,a3,a5
    38e4:	00f71733          	sll	a4,a4,a5
    38e8:	0106d6b3          	srl	a3,a3,a6
    38ec:	00c037b3          	snez	a5,a2
    38f0:	00d76533          	or	a0,a4,a3
    38f4:	b7c1                	j	38b4 <__fixdfsi+0x80>
    38f6:	072e                	slli	a4,a4,0xb
    38f8:	0156d793          	srli	a5,a3,0x15
    38fc:	8f5d                	or	a4,a4,a5
    38fe:	ff2d                	bnez	a4,3878 <__fixdfsi+0x44>
    3900:	06ae                	slli	a3,a3,0xb
    3902:	e681                	bnez	a3,390a <__fixdfsi+0xd6>
    3904:	80000537          	lui	a0,0x80000
    3908:	8082                	ret
    390a:	87ae                	mv	a5,a1
    390c:	80000537          	lui	a0,0x80000
    3910:	0017a073          	csrs	fflags,a5
    3914:	8082                	ret

00003916 <__floatsidf>:
    3916:	1141                	addi	sp,sp,-16
    3918:	c606                	sw	ra,12(sp)
    391a:	c422                	sw	s0,8(sp)
    391c:	c226                	sw	s1,4(sp)
    391e:	cd0d                	beqz	a0,3958 <__floatsidf+0x42>
    3920:	41f55713          	srai	a4,a0,0x1f
    3924:	00a744b3          	xor	s1,a4,a0
    3928:	8c99                	sub	s1,s1,a4
    392a:	87aa                	mv	a5,a0
    392c:	8526                	mv	a0,s1
    392e:	01f7d413          	srli	s0,a5,0x1f
    3932:	2e65                	jal	3cea <__clzsi2>
    3934:	41e00793          	li	a5,1054
    3938:	8f89                	sub	a5,a5,a0
    393a:	4729                	li	a4,10
    393c:	7ff7f793          	andi	a5,a5,2047
    3940:	02a74b63          	blt	a4,a0,3976 <__floatsidf+0x60>
    3944:	472d                	li	a4,11
    3946:	8f09                	sub	a4,a4,a0
    3948:	00e4d733          	srl	a4,s1,a4
    394c:	0555                	addi	a0,a0,21 # 80000015 <__top_dmem+0x7ff70015>
    394e:	0732                	slli	a4,a4,0xc
    3950:	00a494b3          	sll	s1,s1,a0
    3954:	8331                	srli	a4,a4,0xc
    3956:	a029                	j	3960 <__floatsidf+0x4a>
    3958:	4401                	li	s0,0
    395a:	4781                	li	a5,0
    395c:	4701                	li	a4,0
    395e:	4481                	li	s1,0
    3960:	07d2                	slli	a5,a5,0x14
    3962:	047e                	slli	s0,s0,0x1f
    3964:	8fd9                	or	a5,a5,a4
    3966:	40b2                	lw	ra,12(sp)
    3968:	8fc1                	or	a5,a5,s0
    396a:	4422                	lw	s0,8(sp)
    396c:	8526                	mv	a0,s1
    396e:	85be                	mv	a1,a5
    3970:	4492                	lw	s1,4(sp)
    3972:	0141                	addi	sp,sp,16
    3974:	8082                	ret
    3976:	1555                	addi	a0,a0,-11
    3978:	00a49733          	sll	a4,s1,a0
    397c:	0732                	slli	a4,a4,0xc
    397e:	8331                	srli	a4,a4,0xc
    3980:	4481                	li	s1,0
    3982:	bff9                	j	3960 <__floatsidf+0x4a>

00003984 <__fixdfdi>:
    3984:	002027f3          	frrm	a5
    3988:	001006b7          	lui	a3,0x100
    398c:	0145d793          	srli	a5,a1,0x14
    3990:	fff68713          	addi	a4,a3,-1 # fffff <__top_dmem+0x6ffff>
    3994:	7ff7f793          	andi	a5,a5,2047
    3998:	3fe00813          	li	a6,1022
    399c:	8f6d                	and	a4,a4,a1
    399e:	862a                	mv	a2,a0
    39a0:	81fd                	srli	a1,a1,0x1f
    39a2:	00f84963          	blt	a6,a5,39b4 <__fixdfdi+0x30>
    39a6:	c7b1                	beqz	a5,39f2 <__fixdfdi+0x6e>
    39a8:	4501                	li	a0,0
    39aa:	4581                	li	a1,0
    39ac:	4605                	li	a2,1
    39ae:	00162073          	csrs	fflags,a2
    39b2:	8082                	ret
    39b4:	43d00813          	li	a6,1085
    39b8:	00f85c63          	bge	a6,a5,39d0 <__fixdfdi+0x4c>
    39bc:	c5a1                	beqz	a1,3a04 <__fixdfdi+0x80>
    39be:	43e00693          	li	a3,1086
    39c2:	0cd78c63          	beq	a5,a3,3a9a <__fixdfdi+0x116>
    39c6:	4501                	li	a0,0
    39c8:	800005b7          	lui	a1,0x80000
    39cc:	4641                	li	a2,16
    39ce:	b7c5                	j	39ae <__fixdfdi+0x2a>
    39d0:	43200813          	li	a6,1074
    39d4:	8f55                	or	a4,a4,a3
    39d6:	02f85d63          	bge	a6,a5,3a10 <__fixdfdi+0x8c>
    39da:	bad78693          	addi	a3,a5,-1107 # 7ffbad <__top_dmem+0x76fbad>
    39de:	bcd78793          	addi	a5,a5,-1075
    39e2:	0a06c063          	bltz	a3,3a82 <__fixdfdi+0xfe>
    39e6:	00d51733          	sll	a4,a0,a3
    39ea:	4501                	li	a0,0
    39ec:	e1ad                	bnez	a1,3a4e <__fixdfdi+0xca>
    39ee:	85ba                	mv	a1,a4
    39f0:	8082                	ret
    39f2:	8f49                	or	a4,a4,a0
    39f4:	4581                	li	a1,0
